<?xml version="1.0"?>
<pdml>
  <packet>
    <proto name="geninfo" pos="0" showname="General information" size="148">
      <field name="num" pos="0" show="1" showname="Number" value="1" size="148"/>
      <field name="len" pos="0" show="148" showname="Frame Length" value="94" size="148"/>
      <field name="caplen" pos="0" show="148" showname="Captured Length" value="94" size="148"/>
      <field name="timestamp" pos="0" show="Nov 30, 2017 15:40:44.215336513 IST" showname="Captured Time" value="1512036644.215336513" size="148"/>
    </proto>
    <proto name="frame" showname="Frame 1: 148 bytes on wire (1184 bits), 148 bytes captured (1184 bits) on interface 0" size="148" pos="0">
      <field name="frame.interface_id" showname="Interface id: 0 (any)" size="0" pos="0" show="0">
        <field name="frame.interface_name" showname="Interface name: any" size="0" pos="0" show="any"/>
      </field>
      <field name="frame.encap_type" showname="Encapsulation type: Linux cooked-mode capture (25)" size="0" pos="0" show="25"/>
      <field name="frame.time" showname="Arrival Time: Nov 30, 2017 15:40:44.215336513 IST" size="0" pos="0" show="Nov 30, 2017 15:40:44.215336513 IST"/>
      <field name="frame.offset_shift" showname="Time shift for this packet: 0.000000000 seconds" size="0" pos="0" show="0.000000000"/>
      <field name="frame.time_epoch" showname="Epoch Time: 1512036644.215336513 seconds" size="0" pos="0" show="1512036644.215336513"/>
      <field name="frame.time_delta" showname="Time delta from previous captured frame: 0.000000000 seconds" size="0" pos="0" show="0.000000000"/>
      <field name="frame.time_delta_displayed" showname="Time delta from previous displayed frame: 0.000000000 seconds" size="0" pos="0" show="0.000000000"/>
      <field name="frame.time_relative" showname="Time since reference or first frame: 0.000000000 seconds" size="0" pos="0" show="0.000000000"/>
      <field name="frame.number" showname="Frame Number: 1" size="0" pos="0" show="1"/>
      <field name="frame.len" showname="Frame Length: 148 bytes (1184 bits)" size="0" pos="0" show="148"/>
      <field name="frame.cap_len" showname="Capture Length: 148 bytes (1184 bits)" size="0" pos="0" show="148"/>
      <field name="frame.marked" showname="Frame is marked: False" size="0" pos="0" show="0"/>
      <field name="frame.ignored" showname="Frame is ignored: False" size="0" pos="0" show="0"/>
      <field name="frame.protocols" showname="Protocols in frame: sll:ethertype:ip:tcp:aerospikeprotocol" size="0" pos="0" show="sll:ethertype:ip:tcp:aerospikeprotocol"/>
    </proto>
    <proto name="sll" showname="Linux cooked capture" size="16" pos="0">
      <field name="sll.pkttype" showname="Packet type: Unicast to us (0)" size="2" pos="0" show="0" value="0000"/>
      <field name="sll.hatype" showname="Link-layer address type: 772" size="2" pos="2" show="772" value="0304"/>
      <field name="sll.halen" showname="Link-layer address length: 6" size="2" pos="4" show="6" value="0006"/>
      <field name="sll.src.eth" showname="Source: 00:00:00_00:00:00 (00:00:00:00:00:00)" size="6" pos="6" show="00:00:00:00:00:00" value="000000000000"/>
      <field name="sll.unused" showname="Unused: 0000" size="2" pos="12" show="00:00" value="0000"/>
      <field name="sll.etype" showname="Protocol: IPv4 (0x0800)" size="2" pos="14" show="0x00000800" value="0800"/>
    </proto>
    <proto name="ip" showname="Internet Protocol Version 4, Src: 127.0.0.1, Dst: 127.0.0.1" size="20" pos="16">
      <field name="ip.version" showname="0100 .... = Version: 4" size="1" pos="16" show="4" value="4" unmaskedvalue="45"/>
      <field name="ip.hdr_len" showname=".... 0101 = Header Length: 20 bytes (5)" size="1" pos="16" show="20" value="45"/>
      <field name="ip.dsfield" showname="Differentiated Services Field: 0x00 (DSCP: CS0, ECN: Not-ECT)" size="1" pos="17" show="0x00000000" value="00">
        <field name="ip.dsfield.dscp" showname="0000 00.. = Differentiated Services Codepoint: Default (0)" size="1" pos="17" show="0" value="0" unmaskedvalue="00"/>
        <field name="ip.dsfield.ecn" showname=".... ..00 = Explicit Congestion Notification: Not ECN-Capable Transport (0)" size="1" pos="17" show="0" value="0" unmaskedvalue="00"/>
      </field>
      <field name="ip.len" showname="Total Length: 132" size="2" pos="18" show="132" value="0084"/>
      <field name="ip.id" showname="Identification: 0x66ba (26298)" size="2" pos="20" show="0x000066ba" value="66ba"/>
      <field name="ip.flags" showname="Flags: 0x02 (Don't Fragment)" size="1" pos="22" show="0x00000002" value="40">
        <field name="ip.flags.rb" showname="0... .... = Reserved bit: Not set" size="1" pos="22" show="0" value="40"/>
        <field name="ip.flags.df" showname=".1.. .... = Don't fragment: Set" size="1" pos="22" show="1" value="40"/>
        <field name="ip.flags.mf" showname="..0. .... = More fragments: Not set" size="1" pos="22" show="0" value="40"/>
      </field>
      <field name="ip.frag_offset" showname="Fragment offset: 0" size="2" pos="22" show="0" value="4000"/>
      <field name="ip.ttl" showname="Time to live: 64" size="1" pos="24" show="64" value="40"/>
      <field name="ip.proto" showname="Protocol: TCP (6)" size="1" pos="25" show="6" value="06"/>
      <field name="ip.checksum" showname="Header checksum: 0xd5b7 [validation disabled]" size="2" pos="26" show="0x0000d5b7" value="d5b7"/>
      <field name="ip.checksum.status" showname="Header checksum status: Unverified" size="0" pos="26" show="2"/>
      <field name="ip.src" showname="Source: 127.0.0.1" size="4" pos="28" show="127.0.0.1" value="7f000001"/>
      <field name="ip.addr" showname="Source or Destination Address: 127.0.0.1" hide="yes" size="4" pos="28" show="127.0.0.1" value="7f000001"/>
      <field name="ip.src_host" showname="Source Host: 127.0.0.1" hide="yes" size="4" pos="28" show="127.0.0.1" value="7f000001"/>
      <field name="ip.host" showname="Source or Destination Host: 127.0.0.1" hide="yes" size="4" pos="28" show="127.0.0.1" value="7f000001"/>
      <field name="ip.dst" showname="Destination: 127.0.0.1" size="4" pos="32" show="127.0.0.1" value="7f000001"/>
      <field name="ip.addr" showname="Source or Destination Address: 127.0.0.1" hide="yes" size="4" pos="32" show="127.0.0.1" value="7f000001"/>
      <field name="ip.dst_host" showname="Destination Host: 127.0.0.1" hide="yes" size="4" pos="32" show="127.0.0.1" value="7f000001"/>
      <field name="ip.host" showname="Source or Destination Host: 127.0.0.1" hide="yes" size="4" pos="32" show="127.0.0.1" value="7f000001"/>
      <field name="" show="Source GeoIP: Unknown" size="4" pos="28" value="7f000001"/>
      <field name="" show="Destination GeoIP: Unknown" size="4" pos="32" value="7f000001"/>
    </proto>
    <proto name="tcp" showname="Transmission Control Protocol, Src Port: 51848, Dst Port: 3000, Seq: 1, Ack: 1, Len: 80" size="32" pos="36">
      <field name="tcp.srcport" showname="Source Port: 51848" size="2" pos="36" show="51848" value="ca88"/>
      <field name="tcp.dstport" showname="Destination Port: 3000" size="2" pos="38" show="3000" value="0bb8"/>
      <field name="tcp.port" showname="Source or Destination Port: 51848" hide="yes" size="2" pos="36" show="51848" value="ca88"/>
      <field name="tcp.port" showname="Source or Destination Port: 3000" hide="yes" size="2" pos="38" show="3000" value="0bb8"/>
      <field name="tcp.stream" showname="Stream index: 0" size="0" pos="36" show="0"/>
      <field name="tcp.len" showname="TCP Segment Len: 80" size="1" pos="48" show="80" value="80"/>
      <field name="tcp.seq" showname="Sequence number: 1    (relative sequence number)" size="4" pos="40" show="1" value="9c18c363"/>
      <field name="tcp.nxtseq" showname="Next sequence number: 81    (relative sequence number)" size="0" pos="36" show="81"/>
      <field name="tcp.ack" showname="Acknowledgment number: 1    (relative ack number)" size="4" pos="44" show="1" value="595e4c12"/>
      <field name="tcp.hdr_len" showname="1000 .... = Header Length: 32 bytes (8)" size="1" pos="48" show="32" value="80"/>
      <field name="tcp.flags" showname="Flags: 0x018 (PSH, ACK)" size="2" pos="48" show="0x00000018" value="18" unmaskedvalue="8018">
        <field name="tcp.flags.res" showname="000. .... .... = Reserved: Not set" size="1" pos="48" show="0" value="0" unmaskedvalue="80"/>
        <field name="tcp.flags.ns" showname="...0 .... .... = Nonce: Not set" size="1" pos="48" show="0" value="0" unmaskedvalue="80"/>
        <field name="tcp.flags.cwr" showname=".... 0... .... = Congestion Window Reduced (CWR): Not set" size="1" pos="49" show="0" value="0" unmaskedvalue="18"/>
        <field name="tcp.flags.ecn" showname=".... .0.. .... = ECN-Echo: Not set" size="1" pos="49" show="0" value="0" unmaskedvalue="18"/>
        <field name="tcp.flags.urg" showname=".... ..0. .... = Urgent: Not set" size="1" pos="49" show="0" value="0" unmaskedvalue="18"/>
        <field name="tcp.flags.ack" showname=".... ...1 .... = Acknowledgment: Set" size="1" pos="49" show="1" value="1" unmaskedvalue="18"/>
        <field name="tcp.flags.push" showname=".... .... 1... = Push: Set" size="1" pos="49" show="1" value="1" unmaskedvalue="18"/>
        <field name="tcp.flags.reset" showname=".... .... .0.. = Reset: Not set" size="1" pos="49" show="0" value="0" unmaskedvalue="18"/>
        <field name="tcp.flags.syn" showname=".... .... ..0. = Syn: Not set" size="1" pos="49" show="0" value="0" unmaskedvalue="18"/>
        <field name="tcp.flags.fin" showname=".... .... ...0 = Fin: Not set" size="1" pos="49" show="0" value="0" unmaskedvalue="18"/>
        <field name="tcp.flags.str" showname="TCP Flags: \xc2\xb7\xc2\xb7\xc2\xb7\xc2\xb7\xc2\xb7\xc2\xb7\xc2\xb7AP\xc2\xb7\xc2\xb7\xc2\xb7" size="2" pos="48" show="\xc2\xb7\xc2\xb7\xc2\xb7\xc2\xb7\xc2\xb7\xc2\xb7\xc2\xb7AP\xc2\xb7\xc2\xb7\xc2\xb7" value="8018"/>
      </field>
      <field name="tcp.window_size_value" showname="Window size value: 171" size="2" pos="50" show="171" value="00ab"/>
      <field name="tcp.window_size" showname="Calculated window size: 171" size="2" pos="50" show="171" value="00ab"/>
      <field name="tcp.window_size_scalefactor" showname="Window size scaling factor: -1 (unknown)" size="2" pos="50" show="-1" value="00ab"/>
      <field name="tcp.checksum" showname="Checksum: 0xfe78 [unverified]" size="2" pos="52" show="0x0000fe78" value="fe78"/>
      <field name="tcp.checksum.status" showname="Checksum Status: Unverified" size="0" pos="52" show="2"/>
      <field name="tcp.urgent_pointer" showname="Urgent pointer: 0" size="2" pos="54" show="0" value="0000"/>
      <field name="tcp.options" showname="Options: (12 bytes), No-Operation (NOP), No-Operation (NOP), Timestamps" size="12" pos="56" show="01:01:08:0a:00:3b:af:58:00:3b:ad:bc" value="0101080a003baf58003badbc">
        <field name="tcp.options.nop" showname="TCP Option - No-Operation (NOP)" size="1" pos="56" show="01" value="01">
          <field name="tcp.option_kind" showname="Kind: No-Operation (1)" size="1" pos="56" show="1" value="01"/>
        </field>
        <field name="tcp.options.nop" showname="TCP Option - No-Operation (NOP)" size="1" pos="57" show="01" value="01">
          <field name="tcp.option_kind" showname="Kind: No-Operation (1)" size="1" pos="57" show="1" value="01"/>
        </field>
        <field name="tcp.options.timestamp" showname="TCP Option - Timestamps: TSval 3911512, TSecr 3911100" size="10" pos="58" show="08:0a:00:3b:af:58:00:3b:ad:bc" value="080a003baf58003badbc">
          <field name="tcp.option_kind" showname="Kind: Time Stamp Option (8)" size="1" pos="58" show="8" value="08"/>
          <field name="tcp.option_len" showname="Length: 10" size="1" pos="59" show="10" value="0a"/>
          <field name="tcp.options.timestamp.tsval" showname="Timestamp value: 3911512" size="4" pos="60" show="3911512" value="003baf58"/>
          <field name="tcp.options.timestamp.tsecr" showname="Timestamp echo reply: 3911100" size="4" pos="64" show="3911100" value="003badbc"/>
        </field>
      </field>
      <field name="tcp.analysis" showname="SEQ/ACK analysis" size="0" pos="36" show="" value="">
        <field name="tcp.analysis.bytes_in_flight" showname="Bytes in flight: 80" size="0" pos="36" show="80"/>
        <field name="tcp.analysis.push_bytes_sent" showname="Bytes sent since last PSH flag: 80" size="0" pos="36" show="80"/>
      </field>
      <field name="tcp.payload" showname="TCP payload (80 bytes)" size="80" pos="68" show="02:03:00:00:00:00:00:48:16:01:00:00:00:00:00:00:00:00:00:00:00:00:00:00:03:e8:00:05:00:00:00:00:00:05:00:74:65:73:74:00:00:00:08:01:74:65:73:74:73:65:74:00:00:00:03:08:28:64:00:00:00:05:09:00:00:27:10:00:00:00:09:07:42:38:c1:31:a2:56:78:5c" value="02030000000000481601000000000000000000000000000003e8000500000000000500746573740000000801746573747365740000000308286400000005090000271000000009074238c131a256785c"/>
      <field name="tcp.pdu.size" showname="PDU Size: 80" size="80" pos="68" show="80" value="02030000000000481601000000000000000000000000000003e8000500000000000500746573740000000801746573747365740000000308286400000005090000271000000009074238c131a256785c"/>
    </proto>
    <proto name="fake-field-wrapper">
      <field name="_ws.lua.fake" showname="Wireshark Lua fake item" hide="yes" size="0" pos="68" show="" value=""/>
    </proto>
    <proto name="aerospikemessage" showname="Aerospike Message Protocol" size="80" pos="68">
      <field name="message.version" showname="Version: 2" size="1" pos="68" show="2" value="02"/>
      <field name="message.type" showname="Type: Message (3)" size="1" pos="69" show="3" value="03"/>
      <field name="message.size" showname="Size: 72" size="6" pos="70" show="72" value="000000000048"/>
      <proto name="aerospikemessageheader" showname="Aerospike Message Header" size="22" pos="76">
        <field name="message.header_sz" showname="Header Size: 22" size="1" pos="76" show="22" value="16"/>
        <proto name="aerospikeinfo1" showname="Info1 : 1" size="1" pos="77">
          <field name="info1.level_b1" showname="0... .... = AS_MSG_INFO1_CONSISTENCY_LEVEL_B1: 0" size="1" pos="77" show="0" value="0" unmaskedvalue="01"/>
          <field name="info1.level_b0" showname=".0.. .... = AS_MSG_INFO1_CONSISTENCY_LEVEL_B0: 0" size="1" pos="77" show="0" value="0" unmaskedvalue="01"/>
          <field name="info1.get_no_bins" showname="..0. .... = AS_MSG_INFO1_GET_NO_BINS: 0" size="1" pos="77" show="0" value="0" unmaskedvalue="01"/>
          <field name="info1.xdr" showname="...0 .... = AS_MSG_INFO1_XDR: 0" size="1" pos="77" show="0" value="0" unmaskedvalue="01"/>
          <field name="info1.batch" showname=".... 0... = AS_MSG_INFO1_BATCH: 0" size="1" pos="77" show="0" value="0" unmaskedvalue="01"/>
          <field name="info1.unused" showname=".... .0.. = Unused: 0" size="1" pos="77" show="0" value="0" unmaskedvalue="01"/>
          <field name="info1.get_al" showname=".... ..0. = AS_MSG_INFO1_GET_ALL: 0" size="1" pos="77" show="0" value="0" unmaskedvalue="01"/>
          <field name="info1.read" showname=".... ...1 = AS_MSG_INFO1_READ: 1" size="1" pos="77" show="1" value="1" unmaskedvalue="01"/>
        </proto>
        <proto name="aerospikeinfo2" showname="Info2 : 0" size="1" pos="78">
          <field name="info2.respond_all_ops" showname="0... .... = AS_MSG_INFO2_RESPOND_ALL_OPS: 0" size="1" pos="78" show="0" value="0" unmaskedvalue="00"/>
          <field name="info2.unused" showname=".0.. .... = Unused: 0" size="1" pos="78" show="0" value="0" unmaskedvalue="00"/>
          <field name="info2.create_only" showname="..0. .... = AS_MSG_INFO2_CREATE_ONLY: 0" size="1" pos="78" show="0" value="0" unmaskedvalue="00"/>
          <field name="info2.durable_delete" showname="...0 .... = AS_MSG_INFO2_DURABLE_DELETE: 0" size="1" pos="78" show="0" value="0" unmaskedvalue="00"/>
          <field name="info2.generation_dt" showname=".... 0... = AS_MSG_INFO2_GENERATION_GT: 0" size="1" pos="78" show="0" value="0" unmaskedvalue="00"/>
          <field name="info2.generation" showname=".... .0.. = AS_MSG_INFO2_GENERATION: 0" size="1" pos="78" show="0" value="0" unmaskedvalue="00"/>
          <field name="info2.delete" showname=".... ..0. = AS_MSG_INFO2_DELETE: 0" size="1" pos="78" show="0" value="0" unmaskedvalue="00"/>
          <field name="info2.write" showname=".... ...0 = AS_MSG_INFO2_WRITE: 0" size="1" pos="78" show="0" value="0" unmaskedvalue="00"/>
        </proto>
        <proto name="aerospikeinfo3" showname="Info3 : 0" size="1" pos="79">
          <field name="info3.unused1" showname="0... .... = AS_MSG_INFO3_UNUSED2: 0" size="1" pos="79" show="0" value="0" unmaskedvalue="00"/>
          <field name="info3.unused1" showname=".0.. .... = AS_MSG_INFO3_UNUSED1: 0" size="1" pos="79" show="0" value="0" unmaskedvalue="00"/>
          <field name="info3.replace_only" showname="..0. .... = AS_MSG_INFO3_REPLACE_ONLY: 0" size="1" pos="79" show="0" value="0" unmaskedvalue="00"/>
          <field name="info3.create_or_replace" showname="...0 .... = AS_MSG_INFO3_CREATE_OR_REPLACE: 0" size="1" pos="79" show="0" value="0" unmaskedvalue="00"/>
          <field name="info3.update_only" showname=".... 0... = AS_MSG_INFO3_UPDATE_ONLY: 0" size="1" pos="79" show="0" value="0" unmaskedvalue="00"/>
          <field name="info3.level_b1" showname=".... .0.. = AS_MSG_INFO3_COMMIT_LEVEL_B1: 0" size="1" pos="79" show="0" value="0" unmaskedvalue="00"/>
          <field name="info3.level_b0" showname=".... ..0. = AS_MSG_INFO3_COMMIT_LEVEL_B0: 0" size="1" pos="79" show="0" value="0" unmaskedvalue="00"/>
          <field name="info3.last" showname=".... ...0 = AS_MSG_INFO3_LAST: 0" size="1" pos="79" show="0" value="0" unmaskedvalue="00"/>
        </proto>
        <field name="message.unused" showname="Unused: 0" size="1" pos="80" show="0" value="00"/>
        <field name="message.result_code" showname="Result code: 0" size="1" pos="81" show="0" value="00"/>
        <field name="message.generation" showname="Generation: 0" size="4" pos="82" show="0" value="00000000"/>
        <field name="message.record_ttl" showname="Record TTL: 0" size="4" pos="86" show="0" value="00000000"/>
        <field name="message.transaction_ttl" showname="Transaction TTL: 1000" size="4" pos="90" show="1000" value="000003e8"/>
        <field name="message.n_fields" showname="Number of fields: 5" size="2" pos="94" show="5" value="0005"/>
        <field name="message.n_ops" showname="Number of operations: 0" size="2" pos="96" show="0" value="0000"/>
      </proto>
      <proto name="aerospikefields" showname="Aerospike Fields" size="50" pos="98">
        <field name="message.size" showname="Size: 5" size="4" pos="98" show="5" value="00000005"/>
        <field name="message.type" showname="Field Type: AS_MSG_FIELD_TYPE_NAMESPACE (0)" size="1" pos="102" show="0" value="00"/>
        <field name="message.data_str" showname="Data string: test" size="4" pos="103" show="test" value="74657374"/>
        <field name="message.size" showname="Size: 8" size="4" pos="107" show="8" value="00000008"/>
        <field name="message.type" showname="Field Type: AS_MSG_FIELD_TYPE_SET (1)" size="1" pos="111" show="1" value="01"/>
        <field name="message.data_str" showname="Data string: testset" size="7" pos="112" show="testset" value="74657374736574"/>
        <field name="message.size" showname="Size: 3" size="4" pos="119" show="3" value="00000003"/>
        <field name="message.type" showname="Field Type: AS_MSG_FIELD_TYPE_SCAN_OPTIONS (8)" size="1" pos="123" show="8" value="08"/>
        <field name="message.bytes" showname="Data bytes: 2864" size="2" pos="124" show="28:64" value="2864"/>
        <field name="message.size" showname="Size: 5" size="4" pos="126" show="5" value="00000005"/>
        <field name="message.type" showname="Field Type: AS_MSG_FIELD_TYPE_SOCKET_TIMEOUT (9)" size="1" pos="130" show="9" value="09"/>
        <field name="message.data_int" showname="Data integer: 10000" size="4" pos="131" show="10000" value="00002710"/>
        <field name="message.size" showname="Size: 9" size="4" pos="135" show="9" value="00000009"/>
        <field name="message.type" showname="Field Type: AS_MSG_FIELD_TYPE_TRID (7)" size="1" pos="139" show="7" value="07"/>
        <field name="message.data_int" showname="Data integer: 4771776224120174684" size="8" pos="140" show="4771776224120174684" value="4238c131a256785c"/>
      </proto>
    </proto>
  </packet>
</pdml>
