<?xml version="1.0"?>
<pdml>
  <packet>
    <proto name="geninfo" pos="0" showname="General information" size="194">
      <field name="num" pos="0" show="1" showname="Number" value="1" size="194"/>
      <field name="len" pos="0" show="194" showname="Frame Length" value="c2" size="194"/>
      <field name="caplen" pos="0" show="194" showname="Captured Length" value="c2" size="194"/>
      <field name="timestamp" pos="0" show="Feb  8, 2018 15:59:37.871930850 IST" showname="Captured Time" value="1518085777.871930850" size="194"/>
    </proto>
    <proto name="frame" showname="Frame 1: 194 bytes on wire (1552 bits), 194 bytes captured (1552 bits) on interface 0" size="194" pos="0">
      <field name="frame.interface_id" showname="Interface id: 0 (vboxnet3)" size="0" pos="0" show="0">
        <field name="frame.interface_name" showname="Interface name: vboxnet3" size="0" pos="0" show="vboxnet3"/>
      </field>
      <field name="frame.encap_type" showname="Encapsulation type: Ethernet (1)" size="0" pos="0" show="1"/>
      <field name="frame.time" showname="Arrival Time: Feb  8, 2018 15:59:37.871930850 IST" size="0" pos="0" show="Feb  8, 2018 15:59:37.871930850 IST"/>
      <field name="frame.offset_shift" showname="Time shift for this packet: 0.000000000 seconds" size="0" pos="0" show="0.000000000"/>
      <field name="frame.time_epoch" showname="Epoch Time: 1518085777.871930850 seconds" size="0" pos="0" show="1518085777.871930850"/>
      <field name="frame.time_delta" showname="Time delta from previous captured frame: 0.000000000 seconds" size="0" pos="0" show="0.000000000"/>
      <field name="frame.time_delta_displayed" showname="Time delta from previous displayed frame: 0.000000000 seconds" size="0" pos="0" show="0.000000000"/>
      <field name="frame.time_relative" showname="Time since reference or first frame: 0.000000000 seconds" size="0" pos="0" show="0.000000000"/>
      <field name="frame.number" showname="Frame Number: 1" size="0" pos="0" show="1"/>
      <field name="frame.len" showname="Frame Length: 194 bytes (1552 bits)" size="0" pos="0" show="194"/>
      <field name="frame.cap_len" showname="Capture Length: 194 bytes (1552 bits)" size="0" pos="0" show="194"/>
      <field name="frame.marked" showname="Frame is marked: False" size="0" pos="0" show="0"/>
      <field name="frame.ignored" showname="Frame is ignored: False" size="0" pos="0" show="0"/>
      <field name="frame.protocols" showname="Protocols in frame: eth:ethertype:ip:udp:aerospikeheartbeat" size="0" pos="0" show="eth:ethertype:ip:udp:aerospikeheartbeat"/>
    </proto>
    <proto name="eth" showname="Ethernet II, Src: PcsCompu_a5:83:3a (08:00:27:a5:83:3a), Dst: IPv4mcast_01:63:02 (01:00:5e:01:63:02)" size="14" pos="0">
      <field name="eth.dst" showname="Destination: IPv4mcast_01:63:02 (01:00:5e:01:63:02)" size="6" pos="0" show="01:00:5e:01:63:02" value="01005e016302">
        <field name="eth.dst_resolved" showname="Destination (resolved): IPv4mcast_01:63:02" hide="yes" size="6" pos="0" show="IPv4mcast_01:63:02" value="01005e016302"/>
        <field name="eth.addr" showname="Address: IPv4mcast_01:63:02 (01:00:5e:01:63:02)" size="6" pos="0" show="01:00:5e:01:63:02" value="01005e016302"/>
        <field name="eth.addr_resolved" showname="Address (resolved): IPv4mcast_01:63:02" hide="yes" size="6" pos="0" show="IPv4mcast_01:63:02" value="01005e016302"/>
        <field name="eth.lg" showname=".... ..0. .... .... .... .... = LG bit: Globally unique address (factory default)" size="3" pos="0" show="0" value="0" unmaskedvalue="01005e"/>
        <field name="eth.ig" showname=".... ...1 .... .... .... .... = IG bit: Group address (multicast/broadcast)" size="3" pos="0" show="1" value="1" unmaskedvalue="01005e"/>
      </field>
      <field name="eth.src" showname="Source: PcsCompu_a5:83:3a (08:00:27:a5:83:3a)" size="6" pos="6" show="08:00:27:a5:83:3a" value="080027a5833a">
        <field name="eth.src_resolved" showname="Source (resolved): PcsCompu_a5:83:3a" hide="yes" size="6" pos="6" show="PcsCompu_a5:83:3a" value="080027a5833a"/>
        <field name="eth.addr" showname="Address: PcsCompu_a5:83:3a (08:00:27:a5:83:3a)" size="6" pos="6" show="08:00:27:a5:83:3a" value="080027a5833a"/>
        <field name="eth.addr_resolved" showname="Address (resolved): PcsCompu_a5:83:3a" hide="yes" size="6" pos="6" show="PcsCompu_a5:83:3a" value="080027a5833a"/>
        <field name="eth.lg" showname=".... ..0. .... .... .... .... = LG bit: Globally unique address (factory default)" size="3" pos="6" show="0" value="0" unmaskedvalue="080027"/>
        <field name="eth.ig" showname=".... ...0 .... .... .... .... = IG bit: Individual address (unicast)" size="3" pos="6" show="0" value="0" unmaskedvalue="080027"/>
      </field>
      <field name="eth.type" showname="Type: IPv4 (0x0800)" size="2" pos="12" show="0x00000800" value="0800"/>
    </proto>
    <proto name="ip" showname="Internet Protocol Version 4, Src: 10.0.0.13, Dst: 239.1.99.2" size="20" pos="14">
      <field name="ip.version" showname="0100 .... = Version: 4" size="1" pos="14" show="4" value="4" unmaskedvalue="45"/>
      <field name="ip.hdr_len" showname=".... 0101 = Header Length: 20 bytes (5)" size="1" pos="14" show="20" value="45"/>
      <field name="ip.dsfield" showname="Differentiated Services Field: 0x00 (DSCP: CS0, ECN: Not-ECT)" size="1" pos="15" show="0x00000000" value="00">
        <field name="ip.dsfield.dscp" showname="0000 00.. = Differentiated Services Codepoint: Default (0)" size="1" pos="15" show="0" value="0" unmaskedvalue="00"/>
        <field name="ip.dsfield.ecn" showname=".... ..00 = Explicit Congestion Notification: Not ECN-Capable Transport (0)" size="1" pos="15" show="0" value="0" unmaskedvalue="00"/>
      </field>
      <field name="ip.len" showname="Total Length: 180" size="2" pos="16" show="180" value="00b4"/>
      <field name="ip.id" showname="Identification: 0x0000 (0)" size="2" pos="18" show="0x00000000" value="0000"/>
      <field name="ip.flags" showname="Flags: 0x02 (Don't Fragment)" size="1" pos="20" show="0x00000002" value="40">
        <field name="ip.flags.rb" showname="0... .... = Reserved bit: Not set" size="1" pos="20" show="0" value="40"/>
        <field name="ip.flags.df" showname=".1.. .... = Don't fragment: Set" size="1" pos="20" show="1" value="40"/>
        <field name="ip.flags.mf" showname="..0. .... = More fragments: Not set" size="1" pos="20" show="0" value="40"/>
      </field>
      <field name="ip.frag_offset" showname="Fragment offset: 0" size="2" pos="20" show="0" value="4000"/>
      <field name="ip.ttl" showname="Time to live: 1" size="1" pos="22" show="1" value="01"/>
      <field name="ip.proto" showname="Protocol: UDP (17)" size="1" pos="23" show="17" value="11"/>
      <field name="ip.checksum" showname="Header checksum: 0x1d29 [validation disabled]" size="2" pos="24" show="0x00001d29" value="1d29"/>
      <field name="ip.checksum.status" showname="Header checksum status: Unverified" size="0" pos="24" show="2"/>
      <field name="ip.src" showname="Source: 10.0.0.13" size="4" pos="26" show="10.0.0.13" value="0a00000d"/>
      <field name="ip.addr" showname="Source or Destination Address: 10.0.0.13" hide="yes" size="4" pos="26" show="10.0.0.13" value="0a00000d"/>
      <field name="ip.src_host" showname="Source Host: 10.0.0.13" hide="yes" size="4" pos="26" show="10.0.0.13" value="0a00000d"/>
      <field name="ip.host" showname="Source or Destination Host: 10.0.0.13" hide="yes" size="4" pos="26" show="10.0.0.13" value="0a00000d"/>
      <field name="ip.dst" showname="Destination: 239.1.99.2" size="4" pos="30" show="239.1.99.2" value="ef016302"/>
      <field name="ip.addr" showname="Source or Destination Address: 239.1.99.2" hide="yes" size="4" pos="30" show="239.1.99.2" value="ef016302"/>
      <field name="ip.dst_host" showname="Destination Host: 239.1.99.2" hide="yes" size="4" pos="30" show="239.1.99.2" value="ef016302"/>
      <field name="ip.host" showname="Source or Destination Host: 239.1.99.2" hide="yes" size="4" pos="30" show="239.1.99.2" value="ef016302"/>
      <field name="" show="Source GeoIP: Unknown" size="4" pos="26" value="0a00000d"/>
      <field name="" show="Destination GeoIP: Unknown" size="4" pos="30" value="ef016302"/>
    </proto>
    <proto name="udp" showname="User Datagram Protocol, Src Port: 9918, Dst Port: 9918" size="8" pos="34">
      <field name="udp.srcport" showname="Source Port: 9918" size="2" pos="34" show="9918" value="26be"/>
      <field name="udp.dstport" showname="Destination Port: 9918" size="2" pos="36" show="9918" value="26be"/>
      <field name="udp.port" showname="Source or Destination Port: 9918" hide="yes" size="2" pos="34" show="9918" value="26be"/>
      <field name="udp.port" showname="Source or Destination Port: 9918" hide="yes" size="2" pos="36" show="9918" value="26be"/>
      <field name="udp.length" showname="Length: 160" size="2" pos="38" show="160" value="00a0"/>
      <field name="udp.checksum" showname="Checksum: 0x0ead [unverified]" size="2" pos="40" show="0x00000ead" value="0ead"/>
      <field name="udp.checksum.status" showname="Checksum Status: Unverified" size="0" pos="40" show="2"/>
      <field name="udp.stream" showname="Stream index: 0" size="0" pos="42" show="0"/>
    </proto>
    <proto name="fake-field-wrapper">
      <field name="_ws.lua.fake" showname="Wireshark Lua fake item" hide="yes" size="0" pos="42" show="" value=""/>
    </proto>
    <proto name="aerospikeheartbeat" showname="Aerospike Heartbeat" size="152" pos="42">
      <field name="heartbeat.size" showname="Size: 146" size="4" pos="42" show="146" value="00000092"/>
      <field name="heartbeat.type" showname="Field Type: M_TYPE_HEARTBEAT (5)" size="2" pos="46" show="5" value="0005"/>
      <field name="heartbeat_message.id" showname="ID: AS_HB_MSG_ID (0)" size="2" pos="48" show="0" value="0000"/>
      <field name="heartbeat_message.type" showname="Message Type: 1" size="1" pos="50" show="1" value="01"/>
      <field name="heartbeat_message.bytes" showname="Data bytes: 00006864" size="4" pos="51" show="00:00:68:64" value="00006864"/>
      <field name="heartbeat_message.id" showname="ID: AS_HB_MSG_TYPE (1)" size="2" pos="55" show="1" value="0001"/>
      <field name="heartbeat_message.type" showname="Message Type: 1" size="1" pos="57" show="1" value="01"/>
      <field name="heartbeat_message.bytes" showname="Data bytes: 00000000" size="4" pos="58" show="00:00:00:00" value="00000000"/>
      <field name="heartbeat_message.id" showname="ID: AS_HB_MSG_NODE (2)" size="2" pos="62" show="2" value="0002"/>
      <field name="heartbeat_message.type" showname="Message Type: 3" size="1" pos="64" show="3" value="03"/>
      <field name="heartbeat_message.bytes" showname="Data bytes: 0bb93a83a5270008" size="8" pos="65" show="0b:b9:3a:83:a5:27:00:08" value="0bb93a83a5270008"/>
      <field name="heartbeat_message.id" showname="ID: AS_HB_MSG_HLC_TIMESTAMP (4)" size="2" pos="73" show="4" value="0004"/>
      <field name="heartbeat_message.type" showname="Message Type: 3" size="1" pos="75" show="3" value="03"/>
      <field name="heartbeat_message.bytes" showname="Data bytes: 016174f6a8190000" size="8" pos="76" show="01:61:74:f6:a8:19:00:00" value="016174f6a8190000"/>
      <field name="heartbeat_message.id" showname="ID: AS_HB_MSG_FABRIC_DATA (9)" size="2" pos="84" show="9" value="0009"/>
      <field name="heartbeat_message.type" showname="Message Type: 6" size="1" pos="86" show="6" value="06"/>
      <field name="heartbeat_message.size" showname="Size: 17" size="4" pos="87" show="17" value="00000011"/>
      <field name="heartbeat_message.bytes" showname="Data bytes: 020001b90b0a00020f0001b90b0a00000d" size="17" pos="91" show="02:00:01:b9:0b:0a:00:02:0f:00:01:b9:0b:0a:00:00:0d" value="020001b90b0a00020f0001b90b0a00000d"/>
      <field name="heartbeat_message.id" showname="ID: AS_HB_MSG_HB_DATA (10)" size="2" pos="108" show="10" value="000a"/>
      <field name="heartbeat_message.type" showname="Message Type: 6" size="1" pos="110" show="6" value="06"/>
      <field name="heartbeat_message.size" showname="Size: 16" size="4" pos="111" show="16" value="00000010"/>
      <field name="heartbeat_message.bytes" showname="Data bytes: 080027cc6389b90b080027672d2eb90b" size="16" pos="115" show="08:00:27:cc:63:89:b9:0b:08:00:27:67:2d:2e:b9:0b" value="080027cc6389b90b080027672d2eb90b"/>
      <field name="heartbeat_message.id" showname="ID: AS_HB_MSG_PAXOS_DATA (11)" size="2" pos="131" show="11" value="000b"/>
      <field name="heartbeat_message.type" showname="Message Type: 6" size="1" pos="133" show="6" value="06"/>
      <field name="heartbeat_message.size" showname="Size: 56" size="4" pos="134" show="56" value="00000038"/>
      <field name="heartbeat_message.bytes" showname="Data bytes: 7c700000602d8dfd7492000002008495f374610100000000..." size="56" pos="138" show="7c:70:00:00:60:2d:8d:fd:74:92:00:00:02:00:84:95:f3:74:61:01:00:00:00:00:00:00:00:00:03:00:00:00:08:00:27:cc:63:89:b9:0b:08:00:27:a5:83:3a:b9:0b:08:00:27:67:2d:2e:b9:0b" value="7c700000602d8dfd7492000002008495f3746101000000000000000003000000080027cc6389b90b080027a5833ab90b080027672d2eb90b"/>
    </proto>
  </packet>
</pdml>
