<?xml version="1.0"?>
<pdml>
  <packet>
    <proto name="geninfo" pos="0" showname="General information" size="301">
      <field name="num" pos="0" show="1" showname="Number" value="1" size="301"/>
      <field name="len" pos="0" show="301" showname="Frame Length" value="12d" size="301"/>
      <field name="caplen" pos="0" show="301" showname="Captured Length" value="12d" size="301"/>
      <field name="timestamp" pos="0" show="Mar 29, 2018 11:42:37.663175105 IST" showname="Captured Time" value="1522303957.663175105" size="301"/>
    </proto>
    <proto name="frame" showname="Frame 1: 301 bytes on wire (2408 bits), 301 bytes captured (2408 bits) on interface 0" size="301" pos="0">
      <field name="frame.interface_id" showname="Interface id: 0 (lo)" size="0" pos="0" show="0">
        <field name="frame.interface_name" showname="Interface name: lo" size="0" pos="0" show="lo"/>
      </field>
      <field name="frame.encap_type" showname="Encapsulation type: Ethernet (1)" size="0" pos="0" show="1"/>
      <field name="frame.time" showname="Arrival Time: Mar 29, 2018 11:42:37.663175105 IST" size="0" pos="0" show="Mar 29, 2018 11:42:37.663175105 IST"/>
      <field name="frame.offset_shift" showname="Time shift for this packet: 0.000000000 seconds" size="0" pos="0" show="0.000000000"/>
      <field name="frame.time_epoch" showname="Epoch Time: 1522303957.663175105 seconds" size="0" pos="0" show="1522303957.663175105"/>
      <field name="frame.time_delta" showname="Time delta from previous captured frame: 0.000000000 seconds" size="0" pos="0" show="0.000000000"/>
      <field name="frame.time_delta_displayed" showname="Time delta from previous displayed frame: 0.000000000 seconds" size="0" pos="0" show="0.000000000"/>
      <field name="frame.time_relative" showname="Time since reference or first frame: 0.000000000 seconds" size="0" pos="0" show="0.000000000"/>
      <field name="frame.number" showname="Frame Number: 1" size="0" pos="0" show="1"/>
      <field name="frame.len" showname="Frame Length: 301 bytes (2408 bits)" size="0" pos="0" show="301"/>
      <field name="frame.cap_len" showname="Capture Length: 301 bytes (2408 bits)" size="0" pos="0" show="301"/>
      <field name="frame.marked" showname="Frame is marked: False" size="0" pos="0" show="0"/>
      <field name="frame.ignored" showname="Frame is ignored: False" size="0" pos="0" show="0"/>
      <field name="frame.protocols" showname="Protocols in frame: eth:ethertype:ip:tcp:aerospikeprotocol" size="0" pos="0" show="eth:ethertype:ip:tcp:aerospikeprotocol"/>
    </proto>
    <proto name="eth" showname="Ethernet II, Src: 00:00:00_00:00:00 (00:00:00:00:00:00), Dst: 00:00:00_00:00:00 (00:00:00:00:00:00)" size="14" pos="0">
      <field name="eth.dst" showname="Destination: 00:00:00_00:00:00 (00:00:00:00:00:00)" size="6" pos="0" show="00:00:00:00:00:00" value="000000000000">
        <field name="eth.dst_resolved" showname="Destination (resolved): 00:00:00_00:00:00" hide="yes" size="6" pos="0" show="00:00:00_00:00:00" value="000000000000"/>
        <field name="eth.addr" showname="Address: 00:00:00_00:00:00 (00:00:00:00:00:00)" size="6" pos="0" show="00:00:00:00:00:00" value="000000000000"/>
        <field name="eth.addr_resolved" showname="Address (resolved): 00:00:00_00:00:00" hide="yes" size="6" pos="0" show="00:00:00_00:00:00" value="000000000000"/>
        <field name="eth.lg" showname=".... ..0. .... .... .... .... = LG bit: Globally unique address (factory default)" size="3" pos="0" show="0" value="0" unmaskedvalue="000000"/>
        <field name="eth.ig" showname=".... ...0 .... .... .... .... = IG bit: Individual address (unicast)" size="3" pos="0" show="0" value="0" unmaskedvalue="000000"/>
      </field>
      <field name="eth.src" showname="Source: 00:00:00_00:00:00 (00:00:00:00:00:00)" size="6" pos="6" show="00:00:00:00:00:00" value="000000000000">
        <field name="eth.src_resolved" showname="Source (resolved): 00:00:00_00:00:00" hide="yes" size="6" pos="6" show="00:00:00_00:00:00" value="000000000000"/>
        <field name="eth.addr" showname="Address: 00:00:00_00:00:00 (00:00:00:00:00:00)" size="6" pos="6" show="00:00:00:00:00:00" value="000000000000"/>
        <field name="eth.addr_resolved" showname="Address (resolved): 00:00:00_00:00:00" hide="yes" size="6" pos="6" show="00:00:00_00:00:00" value="000000000000"/>
        <field name="eth.lg" showname=".... ..0. .... .... .... .... = LG bit: Globally unique address (factory default)" size="3" pos="6" show="0" value="0" unmaskedvalue="000000"/>
        <field name="eth.ig" showname=".... ...0 .... .... .... .... = IG bit: Individual address (unicast)" size="3" pos="6" show="0" value="0" unmaskedvalue="000000"/>
      </field>
      <field name="eth.type" showname="Type: IPv4 (0x0800)" size="2" pos="12" show="0x00000800" value="0800"/>
    </proto>
    <proto name="ip" showname="Internet Protocol Version 4, Src: 127.0.0.1, Dst: 127.0.0.1" size="20" pos="14">
      <field name="ip.version" showname="0100 .... = Version: 4" size="1" pos="14" show="4" value="4" unmaskedvalue="45"/>
      <field name="ip.hdr_len" showname=".... 0101 = Header Length: 20 bytes (5)" size="1" pos="14" show="20" value="45"/>
      <field name="ip.dsfield" showname="Differentiated Services Field: 0x00 (DSCP: CS0, ECN: Not-ECT)" size="1" pos="15" show="0x00000000" value="00">
        <field name="ip.dsfield.dscp" showname="0000 00.. = Differentiated Services Codepoint: Default (0)" size="1" pos="15" show="0" value="0" unmaskedvalue="00"/>
        <field name="ip.dsfield.ecn" showname=".... ..00 = Explicit Congestion Notification: Not ECN-Capable Transport (0)" size="1" pos="15" show="0" value="0" unmaskedvalue="00"/>
      </field>
      <field name="ip.len" showname="Total Length: 287" size="2" pos="16" show="287" value="011f"/>
      <field name="ip.id" showname="Identification: 0x0101 (257)" size="2" pos="18" show="0x00000101" value="0101"/>
      <field name="ip.flags" showname="Flags: 0x02 (Don't Fragment)" size="1" pos="20" show="0x00000002" value="40">
        <field name="ip.flags.rb" showname="0... .... = Reserved bit: Not set" size="1" pos="20" show="0" value="40"/>
        <field name="ip.flags.df" showname=".1.. .... = Don't fragment: Set" size="1" pos="20" show="1" value="40"/>
        <field name="ip.flags.mf" showname="..0. .... = More fragments: Not set" size="1" pos="20" show="0" value="40"/>
      </field>
      <field name="ip.frag_offset" showname="Fragment offset: 0" size="2" pos="20" show="0" value="4000"/>
      <field name="ip.ttl" showname="Time to live: 64" size="1" pos="22" show="64" value="40"/>
      <field name="ip.proto" showname="Protocol: TCP (6)" size="1" pos="23" show="6" value="06"/>
      <field name="ip.checksum" showname="Header checksum: 0x3ad6 [validation disabled]" size="2" pos="24" show="0x00003ad6" value="3ad6"/>
      <field name="ip.checksum.status" showname="Header checksum status: Unverified" size="0" pos="24" show="2"/>
      <field name="ip.src" showname="Source: 127.0.0.1" size="4" pos="26" show="127.0.0.1" value="7f000001"/>
      <field name="ip.addr" showname="Source or Destination Address: 127.0.0.1" hide="yes" size="4" pos="26" show="127.0.0.1" value="7f000001"/>
      <field name="ip.src_host" showname="Source Host: 127.0.0.1" hide="yes" size="4" pos="26" show="127.0.0.1" value="7f000001"/>
      <field name="ip.host" showname="Source or Destination Host: 127.0.0.1" hide="yes" size="4" pos="26" show="127.0.0.1" value="7f000001"/>
      <field name="ip.dst" showname="Destination: 127.0.0.1" size="4" pos="30" show="127.0.0.1" value="7f000001"/>
      <field name="ip.addr" showname="Source or Destination Address: 127.0.0.1" hide="yes" size="4" pos="30" show="127.0.0.1" value="7f000001"/>
      <field name="ip.dst_host" showname="Destination Host: 127.0.0.1" hide="yes" size="4" pos="30" show="127.0.0.1" value="7f000001"/>
      <field name="ip.host" showname="Source or Destination Host: 127.0.0.1" hide="yes" size="4" pos="30" show="127.0.0.1" value="7f000001"/>
      <field name="" show="Source GeoIP: Unknown" size="4" pos="26" value="7f000001"/>
      <field name="" show="Destination GeoIP: Unknown" size="4" pos="30" value="7f000001"/>
    </proto>
    <proto name="tcp" showname="Transmission Control Protocol, Src Port: 60036, Dst Port: 3000, Seq: 1, Ack: 1, Len: 235" size="32" pos="34">
      <field name="tcp.srcport" showname="Source Port: 60036" size="2" pos="34" show="60036" value="ea84"/>
      <field name="tcp.dstport" showname="Destination Port: 3000" size="2" pos="36" show="3000" value="0bb8"/>
      <field name="tcp.port" showname="Source or Destination Port: 60036" hide="yes" size="2" pos="34" show="60036" value="ea84"/>
      <field name="tcp.port" showname="Source or Destination Port: 3000" hide="yes" size="2" pos="36" show="3000" value="0bb8"/>
      <field name="tcp.stream" showname="Stream index: 0" size="0" pos="34" show="0"/>
      <field name="tcp.len" showname="TCP Segment Len: 235" size="1" pos="46" show="235" value="80"/>
      <field name="tcp.seq" showname="Sequence number: 1    (relative sequence number)" size="4" pos="38" show="1" value="3cdacbb7"/>
      <field name="tcp.nxtseq" showname="Next sequence number: 236    (relative sequence number)" size="0" pos="34" show="236"/>
      <field name="tcp.ack" showname="Acknowledgment number: 1    (relative ack number)" size="4" pos="42" show="1" value="d8264e24"/>
      <field name="tcp.hdr_len" showname="1000 .... = Header Length: 32 bytes (8)" size="1" pos="46" show="32" value="80"/>
      <field name="tcp.flags" showname="Flags: 0x018 (PSH, ACK)" size="2" pos="46" show="0x00000018" value="18" unmaskedvalue="8018">
        <field name="tcp.flags.res" showname="000. .... .... = Reserved: Not set" size="1" pos="46" show="0" value="0" unmaskedvalue="80"/>
        <field name="tcp.flags.ns" showname="...0 .... .... = Nonce: Not set" size="1" pos="46" show="0" value="0" unmaskedvalue="80"/>
        <field name="tcp.flags.cwr" showname=".... 0... .... = Congestion Window Reduced (CWR): Not set" size="1" pos="47" show="0" value="0" unmaskedvalue="18"/>
        <field name="tcp.flags.ecn" showname=".... .0.. .... = ECN-Echo: Not set" size="1" pos="47" show="0" value="0" unmaskedvalue="18"/>
        <field name="tcp.flags.urg" showname=".... ..0. .... = Urgent: Not set" size="1" pos="47" show="0" value="0" unmaskedvalue="18"/>
        <field name="tcp.flags.ack" showname=".... ...1 .... = Acknowledgment: Set" size="1" pos="47" show="1" value="1" unmaskedvalue="18"/>
        <field name="tcp.flags.push" showname=".... .... 1... = Push: Set" size="1" pos="47" show="1" value="1" unmaskedvalue="18"/>
        <field name="tcp.flags.reset" showname=".... .... .0.. = Reset: Not set" size="1" pos="47" show="0" value="0" unmaskedvalue="18"/>
        <field name="tcp.flags.syn" showname=".... .... ..0. = Syn: Not set" size="1" pos="47" show="0" value="0" unmaskedvalue="18"/>
        <field name="tcp.flags.fin" showname=".... .... ...0 = Fin: Not set" size="1" pos="47" show="0" value="0" unmaskedvalue="18"/>
        <field name="tcp.flags.str" showname="TCP Flags: \xc2\xb7\xc2\xb7\xc2\xb7\xc2\xb7\xc2\xb7\xc2\xb7\xc2\xb7AP\xc2\xb7\xc2\xb7\xc2\xb7" size="2" pos="46" show="\xc2\xb7\xc2\xb7\xc2\xb7\xc2\xb7\xc2\xb7\xc2\xb7\xc2\xb7AP\xc2\xb7\xc2\xb7\xc2\xb7" value="8018"/>
      </field>
      <field name="tcp.window_size_value" showname="Window size value: 171" size="2" pos="48" show="171" value="00ab"/>
      <field name="tcp.window_size" showname="Calculated window size: 171" size="2" pos="48" show="171" value="00ab"/>
      <field name="tcp.window_size_scalefactor" showname="Window size scaling factor: -1 (unknown)" size="2" pos="48" show="-1" value="00ab"/>
      <field name="tcp.checksum" showname="Checksum: 0xff13 [unverified]" size="2" pos="50" show="0x0000ff13" value="ff13"/>
      <field name="tcp.checksum.status" showname="Checksum Status: Unverified" size="0" pos="50" show="2"/>
      <field name="tcp.urgent_pointer" showname="Urgent pointer: 0" size="2" pos="52" show="0" value="0000"/>
      <field name="tcp.options" showname="Options: (12 bytes), No-Operation (NOP), No-Operation (NOP), Timestamps" size="12" pos="54" show="01:01:08:0a:00:13:cb:5f:00:13:cb:5e" value="0101080a0013cb5f0013cb5e">
        <field name="tcp.options.nop" showname="TCP Option - No-Operation (NOP)" size="1" pos="54" show="01" value="01">
          <field name="tcp.option_kind" showname="Kind: No-Operation (1)" size="1" pos="54" show="1" value="01"/>
        </field>
        <field name="tcp.options.nop" showname="TCP Option - No-Operation (NOP)" size="1" pos="55" show="01" value="01">
          <field name="tcp.option_kind" showname="Kind: No-Operation (1)" size="1" pos="55" show="1" value="01"/>
        </field>
        <field name="tcp.options.timestamp" showname="TCP Option - Timestamps: TSval 1297247, TSecr 1297246" size="10" pos="56" show="08:0a:00:13:cb:5f:00:13:cb:5e" value="080a0013cb5f0013cb5e">
          <field name="tcp.option_kind" showname="Kind: Time Stamp Option (8)" size="1" pos="56" show="8" value="08"/>
          <field name="tcp.option_len" showname="Length: 10" size="1" pos="57" show="10" value="0a"/>
          <field name="tcp.options.timestamp.tsval" showname="Timestamp value: 1297247" size="4" pos="58" show="1297247" value="0013cb5f"/>
          <field name="tcp.options.timestamp.tsecr" showname="Timestamp echo reply: 1297246" size="4" pos="62" show="1297246" value="0013cb5e"/>
        </field>
      </field>
      <field name="tcp.analysis" showname="SEQ/ACK analysis" size="0" pos="34" show="" value="">
        <field name="tcp.analysis.bytes_in_flight" showname="Bytes in flight: 235" size="0" pos="34" show="235"/>
        <field name="tcp.analysis.push_bytes_sent" showname="Bytes sent since last PSH flag: 235" size="0" pos="34" show="235"/>
      </field>
      <field name="tcp.payload" showname="TCP payload (235 bytes)" size="235" pos="66" show="02:03:00:00:00:00:00:e3:16:09:00:00:00:00:00:00:00:00:00:00:00:00:00:00:03:e8:00:01:00:00:00:00:00:c9:29:00:00:00:05:01:00:00:00:00:bf:6c:1d:13:e7:cd:10:c5:bd:02:2d:27:e7:df:17:0c:0b:cc:d6:e1:00:03:00:01:00:00:00:00:00:05:00:74:65:73:74:00:00:00:01:c1:0b:2c:76:4e:60:4c:43:90:39:80:4e:c9:47:fa:2b:18:52:0d:1a:00:03:00:01:00:00:00:00:00:05:00:74:65:73:74:00:00:00:02:10:fd:8f:59:ad:f1:83:31:52:e4:39:a2:e0:3c:19:ef:cb:12:c1:45:00:03:00:01:00:00:00:00:00:05:00:74:65:73:74:00:00:00:03:70:3c:a4:a0:30:68:c5:71:71:bc:4b:e1:f8:29:fc:dd:60:4c:cd:c5:00:03:00:01:00:00:00:00:00:05:00:74:65:73:74:00:00:00:04:42:3a:4a:32:28:ec:08:00:77:be:88:d0:a0:af:16:49:26:a2:79:7d:00:03:00:01:00:00:00:00:00:05:00:74:65:73:74" value="02030000000000e31609000000000000000000000000000003e800010000000000c929000000050100000000bf6c1d13e7cd10c5bd022d27e7df170c0bccd6e100030001000000000005007465737400000001c10b2c764e604c439039804ec947fa2b18520d1a0003000100000000000500746573740000000210fd8f59adf1833152e439a2e03c19efcb12c14500030001000000000005007465737400000003703ca4a03068c57171bc4be1f829fcdd604ccdc500030001000000000005007465737400000004423a4a3228ec080077be88d0a0af164926a2797d000300010000000000050074657374"/>
    </proto>
    <proto name="fake-field-wrapper">
      <field name="_ws.lua.fake" showname="Wireshark Lua fake item" hide="yes" size="0" pos="66" show="" value=""/>
    </proto>
    <proto name="aerospikemessage" showname="Aerospike Message Protocol" size="235" pos="66">
      <field name="message.version" showname="Version: 2" size="1" pos="66" show="2" value="02"/>
      <field name="message.type" showname="Type: Message (3)" size="1" pos="67" show="3" value="03"/>
      <field name="message.size" showname="Size: 227" size="6" pos="68" show="227" value="0000000000e3"/>
      <proto name="aerospikemessageheader" showname="Aerospike Message Header" size="22" pos="74">
        <field name="message.header_sz" showname="Header Size: 22" size="1" pos="74" show="22" value="16"/>
        <proto name="aerospikeinfo1" showname="Info1 : 9" size="1" pos="75">
          <field name="info1.level_b1" showname="0... .... = AS_MSG_INFO1_CONSISTENCY_LEVEL_B1: 0" size="1" pos="75" show="0" value="0" unmaskedvalue="09"/>
          <field name="info1.level_b0" showname=".0.. .... = AS_MSG_INFO1_CONSISTENCY_LEVEL_B0: 0" size="1" pos="75" show="0" value="0" unmaskedvalue="09"/>
          <field name="info1.get_no_bins" showname="..0. .... = AS_MSG_INFO1_GET_NO_BINS: 0" size="1" pos="75" show="0" value="0" unmaskedvalue="09"/>
          <field name="info1.xdr" showname="...0 .... = AS_MSG_INFO1_XDR: 0" size="1" pos="75" show="0" value="0" unmaskedvalue="09"/>
          <field name="info1.batch" showname=".... 1... = AS_MSG_INFO1_BATCH: 1" size="1" pos="75" show="1" value="1" unmaskedvalue="09"/>
          <field name="info1.unused" showname=".... .0.. = Unused: 0" size="1" pos="75" show="0" value="0" unmaskedvalue="09"/>
          <field name="info1.get_al" showname=".... ..0. = AS_MSG_INFO1_GET_ALL: 0" size="1" pos="75" show="0" value="0" unmaskedvalue="09"/>
          <field name="info1.read" showname=".... ...1 = AS_MSG_INFO1_READ: 1" size="1" pos="75" show="1" value="1" unmaskedvalue="09"/>
        </proto>
        <proto name="aerospikeinfo2" showname="Info2 : 0" size="1" pos="76">
          <field name="info2.respond_all_ops" showname="0... .... = AS_MSG_INFO2_RESPOND_ALL_OPS: 0" size="1" pos="76" show="0" value="0" unmaskedvalue="00"/>
          <field name="info2.unused" showname=".0.. .... = Unused: 0" size="1" pos="76" show="0" value="0" unmaskedvalue="00"/>
          <field name="info2.create_only" showname="..0. .... = AS_MSG_INFO2_CREATE_ONLY: 0" size="1" pos="76" show="0" value="0" unmaskedvalue="00"/>
          <field name="info2.durable_delete" showname="...0 .... = AS_MSG_INFO2_DURABLE_DELETE: 0" size="1" pos="76" show="0" value="0" unmaskedvalue="00"/>
          <field name="info2.generation_dt" showname=".... 0... = AS_MSG_INFO2_GENERATION_GT: 0" size="1" pos="76" show="0" value="0" unmaskedvalue="00"/>
          <field name="info2.generation" showname=".... .0.. = AS_MSG_INFO2_GENERATION: 0" size="1" pos="76" show="0" value="0" unmaskedvalue="00"/>
          <field name="info2.delete" showname=".... ..0. = AS_MSG_INFO2_DELETE: 0" size="1" pos="76" show="0" value="0" unmaskedvalue="00"/>
          <field name="info2.write" showname=".... ...0 = AS_MSG_INFO2_WRITE: 0" size="1" pos="76" show="0" value="0" unmaskedvalue="00"/>
        </proto>
        <proto name="aerospikeinfo3" showname="Info3 : 0" size="1" pos="77">
          <field name="info3.unused1" showname="0... .... = AS_MSG_INFO3_UNUSED2: 0" size="1" pos="77" show="0" value="0" unmaskedvalue="00"/>
          <field name="info3.unused1" showname=".0.. .... = AS_MSG_INFO3_UNUSED1: 0" size="1" pos="77" show="0" value="0" unmaskedvalue="00"/>
          <field name="info3.replace_only" showname="..0. .... = AS_MSG_INFO3_REPLACE_ONLY: 0" size="1" pos="77" show="0" value="0" unmaskedvalue="00"/>
          <field name="info3.create_or_replace" showname="...0 .... = AS_MSG_INFO3_CREATE_OR_REPLACE: 0" size="1" pos="77" show="0" value="0" unmaskedvalue="00"/>
          <field name="info3.update_only" showname=".... 0... = AS_MSG_INFO3_UPDATE_ONLY: 0" size="1" pos="77" show="0" value="0" unmaskedvalue="00"/>
          <field name="info3.level_b1" showname=".... .0.. = AS_MSG_INFO3_COMMIT_LEVEL_B1: 0" size="1" pos="77" show="0" value="0" unmaskedvalue="00"/>
          <field name="info3.level_b0" showname=".... ..0. = AS_MSG_INFO3_COMMIT_LEVEL_B0: 0" size="1" pos="77" show="0" value="0" unmaskedvalue="00"/>
          <field name="info3.last" showname=".... ...0 = AS_MSG_INFO3_LAST: 0" size="1" pos="77" show="0" value="0" unmaskedvalue="00"/>
        </proto>
        <field name="message.unused" showname="Unused: 0" size="1" pos="78" show="0" value="00"/>
        <field name="message.result_code" showname="Result code: 0" size="1" pos="79" show="0" value="00"/>
        <field name="message.generation" showname="Generation: 0" size="4" pos="80" show="0" value="00000000"/>
        <field name="message.record_ttl" showname="Record TTL: 0" size="4" pos="84" show="0" value="00000000"/>
        <field name="message.transaction_ttl" showname="Transaction TTL: 1000" size="4" pos="88" show="1000" value="000003e8"/>
        <field name="message.n_fields" showname="Number of fields: 1" size="2" pos="92" show="1" value="0001"/>
        <field name="message.n_ops" showname="Number of operations: 0" size="2" pos="94" show="0" value="0000"/>
      </proto>
      <proto name="aerospikefields" showname="Aerospike Fields" size="205" pos="96">
        <field name="message.size" showname="Size: 201" size="4" pos="96" show="201" value="000000c9"/>
        <field name="message.type" showname="Field Type: AS_MSG_FIELD_TYPE_BATCH (41)" size="1" pos="100" show="41" value="29"/>
        <proto name="aerospikebatch" showname="Aerospike Batch Protocol" size="200" pos="101">
          <field name="batch.size" showname="Size: 5" size="4" pos="101" show="5" value="00000005"/>
          <field name="batch.inline" showname="Inline: 1" size="1" pos="105" show="1" value="01"/>
          <proto name="aerospikebatchitem" showname="Aerospike Batch Item" size="195" pos="106">
            <field name="batch.index" showname="Index: 0" size="4" pos="106" show="0" value="00000000"/>
            <field name="batch.digest" showname="Digest: bf6c1d13e7cd10c5bd022d27e7df170c0bccd6e1" size="20" pos="110" show="bf:6c:1d:13:e7:cd:10:c5:bd:02:2d:27:e7:df:17:0c:0b:cc:d6:e1" value="bf6c1d13e7cd10c5bd022d27e7df170c0bccd6e1"/>
            <field name="batch.full_header" showname="FullHeader: 0" size="1" pos="130" show="0" value="00"/>
            <field name="batch.read_attr" showname="ReadAttr: 3" size="1" pos="131" show="3" value="03"/>
            <field name="batch.field_count" showname="FieldCount: 1" size="2" pos="132" show="1" value="0001"/>
            <field name="batch.number_of_bins" showname="NumberOfBins: 0" size="2" pos="134" show="0" value="0000"/>
            <field name="batch.namespace_length" showname="NamespaceLength: 5" size="4" pos="136" show="5" value="00000005"/>
            <field name="batch.value" showname="Value: 0074657374" size="5" pos="140" show="00:74:65:73:74" value="0074657374"/>
          </proto>
          <proto name="aerospikebatchitem" showname="Aerospike Batch Item" size="156" pos="145">
            <field name="batch.index" showname="Index: 1" size="4" pos="145" show="1" value="00000001"/>
            <field name="batch.digest" showname="Digest: c10b2c764e604c439039804ec947fa2b18520d1a" size="20" pos="149" show="c1:0b:2c:76:4e:60:4c:43:90:39:80:4e:c9:47:fa:2b:18:52:0d:1a" value="c10b2c764e604c439039804ec947fa2b18520d1a"/>
            <field name="batch.full_header" showname="FullHeader: 0" size="1" pos="169" show="0" value="00"/>
            <field name="batch.read_attr" showname="ReadAttr: 3" size="1" pos="170" show="3" value="03"/>
            <field name="batch.field_count" showname="FieldCount: 1" size="2" pos="171" show="1" value="0001"/>
            <field name="batch.number_of_bins" showname="NumberOfBins: 0" size="2" pos="173" show="0" value="0000"/>
            <field name="batch.namespace_length" showname="NamespaceLength: 5" size="4" pos="175" show="5" value="00000005"/>
            <field name="batch.value" showname="Value: 0074657374" size="5" pos="179" show="00:74:65:73:74" value="0074657374"/>
          </proto>
          <proto name="aerospikebatchitem" showname="Aerospike Batch Item" size="117" pos="184">
            <field name="batch.index" showname="Index: 2" size="4" pos="184" show="2" value="00000002"/>
            <field name="batch.digest" showname="Digest: 10fd8f59adf1833152e439a2e03c19efcb12c145" size="20" pos="188" show="10:fd:8f:59:ad:f1:83:31:52:e4:39:a2:e0:3c:19:ef:cb:12:c1:45" value="10fd8f59adf1833152e439a2e03c19efcb12c145"/>
            <field name="batch.full_header" showname="FullHeader: 0" size="1" pos="208" show="0" value="00"/>
            <field name="batch.read_attr" showname="ReadAttr: 3" size="1" pos="209" show="3" value="03"/>
            <field name="batch.field_count" showname="FieldCount: 1" size="2" pos="210" show="1" value="0001"/>
            <field name="batch.number_of_bins" showname="NumberOfBins: 0" size="2" pos="212" show="0" value="0000"/>
            <field name="batch.namespace_length" showname="NamespaceLength: 5" size="4" pos="214" show="5" value="00000005"/>
            <field name="batch.value" showname="Value: 0074657374" size="5" pos="218" show="00:74:65:73:74" value="0074657374"/>
          </proto>
          <proto name="aerospikebatchitem" showname="Aerospike Batch Item" size="78" pos="223">
            <field name="batch.index" showname="Index: 3" size="4" pos="223" show="3" value="00000003"/>
            <field name="batch.digest" showname="Digest: 703ca4a03068c57171bc4be1f829fcdd604ccdc5" size="20" pos="227" show="70:3c:a4:a0:30:68:c5:71:71:bc:4b:e1:f8:29:fc:dd:60:4c:cd:c5" value="703ca4a03068c57171bc4be1f829fcdd604ccdc5"/>
            <field name="batch.full_header" showname="FullHeader: 0" size="1" pos="247" show="0" value="00"/>
            <field name="batch.read_attr" showname="ReadAttr: 3" size="1" pos="248" show="3" value="03"/>
            <field name="batch.field_count" showname="FieldCount: 1" size="2" pos="249" show="1" value="0001"/>
            <field name="batch.number_of_bins" showname="NumberOfBins: 0" size="2" pos="251" show="0" value="0000"/>
            <field name="batch.namespace_length" showname="NamespaceLength: 5" size="4" pos="253" show="5" value="00000005"/>
            <field name="batch.value" showname="Value: 0074657374" size="5" pos="257" show="00:74:65:73:74" value="0074657374"/>
          </proto>
          <proto name="aerospikebatchitem" showname="Aerospike Batch Item" size="39" pos="262">
            <field name="batch.index" showname="Index: 4" size="4" pos="262" show="4" value="00000004"/>
            <field name="batch.digest" showname="Digest: 423a4a3228ec080077be88d0a0af164926a2797d" size="20" pos="266" show="42:3a:4a:32:28:ec:08:00:77:be:88:d0:a0:af:16:49:26:a2:79:7d" value="423a4a3228ec080077be88d0a0af164926a2797d"/>
            <field name="batch.full_header" showname="FullHeader: 0" size="1" pos="286" show="0" value="00"/>
            <field name="batch.read_attr" showname="ReadAttr: 3" size="1" pos="287" show="3" value="03"/>
            <field name="batch.field_count" showname="FieldCount: 1" size="2" pos="288" show="1" value="0001"/>
            <field name="batch.number_of_bins" showname="NumberOfBins: 0" size="2" pos="290" show="0" value="0000"/>
            <field name="batch.namespace_length" showname="NamespaceLength: 5" size="4" pos="292" show="5" value="00000005"/>
            <field name="batch.value" showname="Value: 0074657374" size="5" pos="296" show="00:74:65:73:74" value="0074657374"/>
          </proto>
        </proto>
      </proto>
    </proto>
  </packet>
  <packet>
    <proto name="geninfo" pos="0" showname="General information" size="522">
      <field name="num" pos="0" show="2" showname="Number" value="2" size="522"/>
      <field name="len" pos="0" show="522" showname="Frame Length" value="20a" size="522"/>
      <field name="caplen" pos="0" show="522" showname="Captured Length" value="20a" size="522"/>
      <field name="timestamp" pos="0" show="Mar 29, 2018 11:42:37.663362727 IST" showname="Captured Time" value="1522303957.663362727" size="522"/>
    </proto>
    <proto name="frame" showname="Frame 2: 522 bytes on wire (4176 bits), 522 bytes captured (4176 bits) on interface 0" size="522" pos="0">
      <field name="frame.interface_id" showname="Interface id: 0 (lo)" size="0" pos="0" show="0">
        <field name="frame.interface_name" showname="Interface name: lo" size="0" pos="0" show="lo"/>
      </field>
      <field name="frame.encap_type" showname="Encapsulation type: Ethernet (1)" size="0" pos="0" show="1"/>
      <field name="frame.time" showname="Arrival Time: Mar 29, 2018 11:42:37.663362727 IST" size="0" pos="0" show="Mar 29, 2018 11:42:37.663362727 IST"/>
      <field name="frame.offset_shift" showname="Time shift for this packet: 0.000000000 seconds" size="0" pos="0" show="0.000000000"/>
      <field name="frame.time_epoch" showname="Epoch Time: 1522303957.663362727 seconds" size="0" pos="0" show="1522303957.663362727"/>
      <field name="frame.time_delta" showname="Time delta from previous captured frame: 0.000187622 seconds" size="0" pos="0" show="0.000187622"/>
      <field name="frame.time_delta_displayed" showname="Time delta from previous displayed frame: 0.000187622 seconds" size="0" pos="0" show="0.000187622"/>
      <field name="frame.time_relative" showname="Time since reference or first frame: 0.000187622 seconds" size="0" pos="0" show="0.000187622"/>
      <field name="frame.number" showname="Frame Number: 2" size="0" pos="0" show="2"/>
      <field name="frame.len" showname="Frame Length: 522 bytes (4176 bits)" size="0" pos="0" show="522"/>
      <field name="frame.cap_len" showname="Capture Length: 522 bytes (4176 bits)" size="0" pos="0" show="522"/>
      <field name="frame.marked" showname="Frame is marked: False" size="0" pos="0" show="0"/>
      <field name="frame.ignored" showname="Frame is ignored: False" size="0" pos="0" show="0"/>
      <field name="frame.protocols" showname="Protocols in frame: eth:ethertype:ip:tcp:aerospikeprotocol" size="0" pos="0" show="eth:ethertype:ip:tcp:aerospikeprotocol"/>
    </proto>
    <proto name="eth" showname="Ethernet II, Src: 00:00:00_00:00:00 (00:00:00:00:00:00), Dst: 00:00:00_00:00:00 (00:00:00:00:00:00)" size="14" pos="0">
      <field name="eth.dst" showname="Destination: 00:00:00_00:00:00 (00:00:00:00:00:00)" size="6" pos="0" show="00:00:00:00:00:00" value="000000000000">
        <field name="eth.dst_resolved" showname="Destination (resolved): 00:00:00_00:00:00" hide="yes" size="6" pos="0" show="00:00:00_00:00:00" value="000000000000"/>
        <field name="eth.addr" showname="Address: 00:00:00_00:00:00 (00:00:00:00:00:00)" size="6" pos="0" show="00:00:00:00:00:00" value="000000000000"/>
        <field name="eth.addr_resolved" showname="Address (resolved): 00:00:00_00:00:00" hide="yes" size="6" pos="0" show="00:00:00_00:00:00" value="000000000000"/>
        <field name="eth.lg" showname=".... ..0. .... .... .... .... = LG bit: Globally unique address (factory default)" size="3" pos="0" show="0" value="0" unmaskedvalue="000000"/>
        <field name="eth.ig" showname=".... ...0 .... .... .... .... = IG bit: Individual address (unicast)" size="3" pos="0" show="0" value="0" unmaskedvalue="000000"/>
      </field>
      <field name="eth.src" showname="Source: 00:00:00_00:00:00 (00:00:00:00:00:00)" size="6" pos="6" show="00:00:00:00:00:00" value="000000000000">
        <field name="eth.src_resolved" showname="Source (resolved): 00:00:00_00:00:00" hide="yes" size="6" pos="6" show="00:00:00_00:00:00" value="000000000000"/>
        <field name="eth.addr" showname="Address: 00:00:00_00:00:00 (00:00:00:00:00:00)" size="6" pos="6" show="00:00:00:00:00:00" value="000000000000"/>
        <field name="eth.addr_resolved" showname="Address (resolved): 00:00:00_00:00:00" hide="yes" size="6" pos="6" show="00:00:00_00:00:00" value="000000000000"/>
        <field name="eth.lg" showname=".... ..0. .... .... .... .... = LG bit: Globally unique address (factory default)" size="3" pos="6" show="0" value="0" unmaskedvalue="000000"/>
        <field name="eth.ig" showname=".... ...0 .... .... .... .... = IG bit: Individual address (unicast)" size="3" pos="6" show="0" value="0" unmaskedvalue="000000"/>
      </field>
      <field name="eth.type" showname="Type: IPv4 (0x0800)" size="2" pos="12" show="0x00000800" value="0800"/>
    </proto>
    <proto name="ip" showname="Internet Protocol Version 4, Src: 127.0.0.1, Dst: 127.0.0.1" size="20" pos="14">
      <field name="ip.version" showname="0100 .... = Version: 4" size="1" pos="14" show="4" value="4" unmaskedvalue="45"/>
      <field name="ip.hdr_len" showname=".... 0101 = Header Length: 20 bytes (5)" size="1" pos="14" show="20" value="45"/>
      <field name="ip.dsfield" showname="Differentiated Services Field: 0x00 (DSCP: CS0, ECN: Not-ECT)" size="1" pos="15" show="0x00000000" value="00">
        <field name="ip.dsfield.dscp" showname="0000 00.. = Differentiated Services Codepoint: Default (0)" size="1" pos="15" show="0" value="0" unmaskedvalue="00"/>
        <field name="ip.dsfield.ecn" showname=".... ..00 = Explicit Congestion Notification: Not ECN-Capable Transport (0)" size="1" pos="15" show="0" value="0" unmaskedvalue="00"/>
      </field>
      <field name="ip.len" showname="Total Length: 508" size="2" pos="16" show="508" value="01fc"/>
      <field name="ip.id" showname="Identification: 0x8554 (34132)" size="2" pos="18" show="0x00008554" value="8554"/>
      <field name="ip.flags" showname="Flags: 0x02 (Don't Fragment)" size="1" pos="20" show="0x00000002" value="40">
        <field name="ip.flags.rb" showname="0... .... = Reserved bit: Not set" size="1" pos="20" show="0" value="40"/>
        <field name="ip.flags.df" showname=".1.. .... = Don't fragment: Set" size="1" pos="20" show="1" value="40"/>
        <field name="ip.flags.mf" showname="..0. .... = More fragments: Not set" size="1" pos="20" show="0" value="40"/>
      </field>
      <field name="ip.frag_offset" showname="Fragment offset: 0" size="2" pos="20" show="0" value="4000"/>
      <field name="ip.ttl" showname="Time to live: 64" size="1" pos="22" show="64" value="40"/>
      <field name="ip.proto" showname="Protocol: TCP (6)" size="1" pos="23" show="6" value="06"/>
      <field name="ip.checksum" showname="Header checksum: 0xb5a5 [validation disabled]" size="2" pos="24" show="0x0000b5a5" value="b5a5"/>
      <field name="ip.checksum.status" showname="Header checksum status: Unverified" size="0" pos="24" show="2"/>
      <field name="ip.src" showname="Source: 127.0.0.1" size="4" pos="26" show="127.0.0.1" value="7f000001"/>
      <field name="ip.addr" showname="Source or Destination Address: 127.0.0.1" hide="yes" size="4" pos="26" show="127.0.0.1" value="7f000001"/>
      <field name="ip.src_host" showname="Source Host: 127.0.0.1" hide="yes" size="4" pos="26" show="127.0.0.1" value="7f000001"/>
      <field name="ip.host" showname="Source or Destination Host: 127.0.0.1" hide="yes" size="4" pos="26" show="127.0.0.1" value="7f000001"/>
      <field name="ip.dst" showname="Destination: 127.0.0.1" size="4" pos="30" show="127.0.0.1" value="7f000001"/>
      <field name="ip.addr" showname="Source or Destination Address: 127.0.0.1" hide="yes" size="4" pos="30" show="127.0.0.1" value="7f000001"/>
      <field name="ip.dst_host" showname="Destination Host: 127.0.0.1" hide="yes" size="4" pos="30" show="127.0.0.1" value="7f000001"/>
      <field name="ip.host" showname="Source or Destination Host: 127.0.0.1" hide="yes" size="4" pos="30" show="127.0.0.1" value="7f000001"/>
      <field name="" show="Source GeoIP: Unknown" size="4" pos="26" value="7f000001"/>
      <field name="" show="Destination GeoIP: Unknown" size="4" pos="30" value="7f000001"/>
    </proto>
    <proto name="tcp" showname="Transmission Control Protocol, Src Port: 3000, Dst Port: 60036, Seq: 1, Ack: 236, Len: 456" size="32" pos="34">
      <field name="tcp.srcport" showname="Source Port: 3000" size="2" pos="34" show="3000" value="0bb8"/>
      <field name="tcp.dstport" showname="Destination Port: 60036" size="2" pos="36" show="60036" value="ea84"/>
      <field name="tcp.port" showname="Source or Destination Port: 3000" hide="yes" size="2" pos="34" show="3000" value="0bb8"/>
      <field name="tcp.port" showname="Source or Destination Port: 60036" hide="yes" size="2" pos="36" show="60036" value="ea84"/>
      <field name="tcp.stream" showname="Stream index: 0" size="0" pos="34" show="0"/>
      <field name="tcp.len" showname="TCP Segment Len: 456" size="1" pos="46" show="456" value="80"/>
      <field name="tcp.seq" showname="Sequence number: 1    (relative sequence number)" size="4" pos="38" show="1" value="d8264e24"/>
      <field name="tcp.nxtseq" showname="Next sequence number: 457    (relative sequence number)" size="0" pos="34" show="457"/>
      <field name="tcp.ack" showname="Acknowledgment number: 236    (relative ack number)" size="4" pos="42" show="236" value="3cdacca2"/>
      <field name="tcp.hdr_len" showname="1000 .... = Header Length: 32 bytes (8)" size="1" pos="46" show="32" value="80"/>
      <field name="tcp.flags" showname="Flags: 0x018 (PSH, ACK)" size="2" pos="46" show="0x00000018" value="18" unmaskedvalue="8018">
        <field name="tcp.flags.res" showname="000. .... .... = Reserved: Not set" size="1" pos="46" show="0" value="0" unmaskedvalue="80"/>
        <field name="tcp.flags.ns" showname="...0 .... .... = Nonce: Not set" size="1" pos="46" show="0" value="0" unmaskedvalue="80"/>
        <field name="tcp.flags.cwr" showname=".... 0... .... = Congestion Window Reduced (CWR): Not set" size="1" pos="47" show="0" value="0" unmaskedvalue="18"/>
        <field name="tcp.flags.ecn" showname=".... .0.. .... = ECN-Echo: Not set" size="1" pos="47" show="0" value="0" unmaskedvalue="18"/>
        <field name="tcp.flags.urg" showname=".... ..0. .... = Urgent: Not set" size="1" pos="47" show="0" value="0" unmaskedvalue="18"/>
        <field name="tcp.flags.ack" showname=".... ...1 .... = Acknowledgment: Set" size="1" pos="47" show="1" value="1" unmaskedvalue="18"/>
        <field name="tcp.flags.push" showname=".... .... 1... = Push: Set" size="1" pos="47" show="1" value="1" unmaskedvalue="18"/>
        <field name="tcp.flags.reset" showname=".... .... .0.. = Reset: Not set" size="1" pos="47" show="0" value="0" unmaskedvalue="18"/>
        <field name="tcp.flags.syn" showname=".... .... ..0. = Syn: Not set" size="1" pos="47" show="0" value="0" unmaskedvalue="18"/>
        <field name="tcp.flags.fin" showname=".... .... ...0 = Fin: Not set" size="1" pos="47" show="0" value="0" unmaskedvalue="18"/>
        <field name="tcp.flags.str" showname="TCP Flags: \xc2\xb7\xc2\xb7\xc2\xb7\xc2\xb7\xc2\xb7\xc2\xb7\xc2\xb7AP\xc2\xb7\xc2\xb7\xc2\xb7" size="2" pos="46" show="\xc2\xb7\xc2\xb7\xc2\xb7\xc2\xb7\xc2\xb7\xc2\xb7\xc2\xb7AP\xc2\xb7\xc2\xb7\xc2\xb7" value="8018"/>
      </field>
      <field name="tcp.window_size_value" showname="Window size value: 175" size="2" pos="48" show="175" value="00af"/>
      <field name="tcp.window_size" showname="Calculated window size: 175" size="2" pos="48" show="175" value="00af"/>
      <field name="tcp.window_size_scalefactor" showname="Window size scaling factor: -1 (unknown)" size="2" pos="48" show="-1" value="00af"/>
      <field name="tcp.checksum" showname="Checksum: 0xfff0 [unverified]" size="2" pos="50" show="0x0000fff0" value="fff0"/>
      <field name="tcp.checksum.status" showname="Checksum Status: Unverified" size="0" pos="50" show="2"/>
      <field name="tcp.urgent_pointer" showname="Urgent pointer: 0" size="2" pos="52" show="0" value="0000"/>
      <field name="tcp.options" showname="Options: (12 bytes), No-Operation (NOP), No-Operation (NOP), Timestamps" size="12" pos="54" show="01:01:08:0a:00:13:cb:5f:00:13:cb:5f" value="0101080a0013cb5f0013cb5f">
        <field name="tcp.options.nop" showname="TCP Option - No-Operation (NOP)" size="1" pos="54" show="01" value="01">
          <field name="tcp.option_kind" showname="Kind: No-Operation (1)" size="1" pos="54" show="1" value="01"/>
        </field>
        <field name="tcp.options.nop" showname="TCP Option - No-Operation (NOP)" size="1" pos="55" show="01" value="01">
          <field name="tcp.option_kind" showname="Kind: No-Operation (1)" size="1" pos="55" show="1" value="01"/>
        </field>
        <field name="tcp.options.timestamp" showname="TCP Option - Timestamps: TSval 1297247, TSecr 1297247" size="10" pos="56" show="08:0a:00:13:cb:5f:00:13:cb:5f" value="080a0013cb5f0013cb5f">
          <field name="tcp.option_kind" showname="Kind: Time Stamp Option (8)" size="1" pos="56" show="8" value="08"/>
          <field name="tcp.option_len" showname="Length: 10" size="1" pos="57" show="10" value="0a"/>
          <field name="tcp.options.timestamp.tsval" showname="Timestamp value: 1297247" size="4" pos="58" show="1297247" value="0013cb5f"/>
          <field name="tcp.options.timestamp.tsecr" showname="Timestamp echo reply: 1297247" size="4" pos="62" show="1297247" value="0013cb5f"/>
        </field>
      </field>
      <field name="tcp.analysis" showname="SEQ/ACK analysis" size="0" pos="34" show="" value="">
        <field name="tcp.analysis.acks_frame" showname="This is an ACK to the segment in frame: 1" size="0" pos="34" show="1"/>
        <field name="tcp.analysis.ack_rtt" showname="The RTT to ACK the segment was: 0.000187622 seconds" size="0" pos="34" show="0.000187622"/>
        <field name="tcp.analysis.bytes_in_flight" showname="Bytes in flight: 456" size="0" pos="34" show="456"/>
        <field name="tcp.analysis.push_bytes_sent" showname="Bytes sent since last PSH flag: 456" size="0" pos="34" show="456"/>
      </field>
      <field name="tcp.payload" showname="TCP payload (456 bytes)" size="456" pos="66" show="02:03:00:00:00:00:01:a2:16:00:00:00:00:00:00:00:00:01:0f:a6:d1:60:00:00:00:00:00:01:00:02:00:00:00:15:04:bf:6c:1d:13:e7:cd:10:c5:bd:02:2d:27:e7:df:17:0c:0b:cc:d6:e1:00:00:00:0f:01:03:00:04:6e:61:6d:65:53:68:61:6b:74:68:69:00:00:00:0f:01:01:00:03:61:67:65:00:00:00:00:00:00:00:25:16:00:00:00:00:00:00:00:00:01:0f:a6:d1:67:00:00:00:01:00:01:00:02:00:00:00:15:04:c1:0b:2c:76:4e:60:4c:43:90:39:80:4e:c9:47:fa:2b:18:52:0d:1a:00:00:00:0d:01:03:00:04:6e:61:6d:65:41:64:69:74:68:00:00:00:0f:01:01:00:03:61:67:65:00:00:00:00:00:00:00:04:16:00:00:00:00:00:00:00:00:01:0f:a6:d1:6f:00:00:00:02:00:01:00:02:00:00:00:15:04:10:fd:8f:59:ad:f1:83:31:52:e4:39:a2:e0:3c:19:ef:cb:12:c1:45:00:00:00:0e:01:03:00:04:6e:61:6d:65:56:69:76:61:61:6e:00:00:00:0f:01:01:00:03:61:67:65:00:00:00:00:00:00:00:01:16:00:00:00:00:00:00:00:00:01:0f:a6:d1:76:00:00:00:03:00:01:00:02:00:00:00:15:04:70:3c:a4:a0:30:68:c5:71:71:bc:4b:e1:f8:29:fc:dd:60:4c:cd:c5:00:00:00:0e:01:03:00:04:6e:61:6d:65:53:68:69:76:61:6e:00:00:00:0f:01:01:00:03:61:67:65:00:00:00:00:00:00:00:25:16:00:00:00:00:00:00:00:00:01:0f:a6:d1:93:00:00:00:04:00:01:00:02:00:00:00:15:04:42:3a:4a:32:28:ec:08:00:77:be:88:d0:a0:af:16:49:26:a2:79:7d:00:00:00:0c:01:03:00:04:6e:61:6d:65:54:69:6d:6f:00:00:00:0f:01:01:00:03:61:67:65:00:00:00:00:00:00:00:24:02:03:00:00:00:00:00:16:16:00:00:01:00:00:00:00:00:00:00:00:00:00:00:00:00:00:00:00:00:00" value="02030000000001a2160000000000000000010fa6d16000000000000100020000001504bf6c1d13e7cd10c5bd022d27e7df170c0bccd6e10000000f010300046e616d655368616b7468690000000f010100036167650000000000000025160000000000000000010fa6d16700000001000100020000001504c10b2c764e604c439039804ec947fa2b18520d1a0000000d010300046e616d6541646974680000000f010100036167650000000000000004160000000000000000010fa6d16f0000000200010002000000150410fd8f59adf1833152e439a2e03c19efcb12c1450000000e010300046e616d6556697661616e0000000f010100036167650000000000000001160000000000000000010fa6d17600000003000100020000001504703ca4a03068c57171bc4be1f829fcdd604ccdc50000000e010300046e616d6553686976616e0000000f010100036167650000000000000025160000000000000000010fa6d19300000004000100020000001504423a4a3228ec080077be88d0a0af164926a2797d0000000c010300046e616d6554696d6f0000000f010100036167650000000000000024020300000000001616000001000000000000000000000000000000000000"/>
    </proto>
    <proto name="fake-field-wrapper">
      <field name="_ws.lua.fake" showname="Wireshark Lua fake item" hide="yes" size="0" pos="66" show="" value=""/>
    </proto>
    <proto name="aerospikemessage" showname="Aerospike Message Protocol" size="426" pos="66">
      <field name="message.version" showname="Version: 2" size="1" pos="66" show="2" value="02"/>
      <field name="message.type" showname="Type: Message (3)" size="1" pos="67" show="3" value="03"/>
      <field name="message.size" showname="Size: 418" size="6" pos="68" show="418" value="0000000001a2"/>
      <proto name="aerospikemessageheader" showname="Aerospike Message Header" size="22" pos="74">
        <field name="message.header_sz" showname="Header Size: 22" size="1" pos="74" show="22" value="16"/>
        <proto name="aerospikeinfo1" showname="Info1 : 0" size="1" pos="75">
          <field name="info1.level_b1" showname="0... .... = AS_MSG_INFO1_CONSISTENCY_LEVEL_B1: 0" size="1" pos="75" show="0" value="0" unmaskedvalue="00"/>
          <field name="info1.level_b0" showname=".0.. .... = AS_MSG_INFO1_CONSISTENCY_LEVEL_B0: 0" size="1" pos="75" show="0" value="0" unmaskedvalue="00"/>
          <field name="info1.get_no_bins" showname="..0. .... = AS_MSG_INFO1_GET_NO_BINS: 0" size="1" pos="75" show="0" value="0" unmaskedvalue="00"/>
          <field name="info1.xdr" showname="...0 .... = AS_MSG_INFO1_XDR: 0" size="1" pos="75" show="0" value="0" unmaskedvalue="00"/>
          <field name="info1.batch" showname=".... 0... = AS_MSG_INFO1_BATCH: 0" size="1" pos="75" show="0" value="0" unmaskedvalue="00"/>
          <field name="info1.unused" showname=".... .0.. = Unused: 0" size="1" pos="75" show="0" value="0" unmaskedvalue="00"/>
          <field name="info1.get_al" showname=".... ..0. = AS_MSG_INFO1_GET_ALL: 0" size="1" pos="75" show="0" value="0" unmaskedvalue="00"/>
          <field name="info1.read" showname=".... ...0 = AS_MSG_INFO1_READ: 0" size="1" pos="75" show="0" value="0" unmaskedvalue="00"/>
        </proto>
        <proto name="aerospikeinfo2" showname="Info2 : 0" size="1" pos="76">
          <field name="info2.respond_all_ops" showname="0... .... = AS_MSG_INFO2_RESPOND_ALL_OPS: 0" size="1" pos="76" show="0" value="0" unmaskedvalue="00"/>
          <field name="info2.unused" showname=".0.. .... = Unused: 0" size="1" pos="76" show="0" value="0" unmaskedvalue="00"/>
          <field name="info2.create_only" showname="..0. .... = AS_MSG_INFO2_CREATE_ONLY: 0" size="1" pos="76" show="0" value="0" unmaskedvalue="00"/>
          <field name="info2.durable_delete" showname="...0 .... = AS_MSG_INFO2_DURABLE_DELETE: 0" size="1" pos="76" show="0" value="0" unmaskedvalue="00"/>
          <field name="info2.generation_dt" showname=".... 0... = AS_MSG_INFO2_GENERATION_GT: 0" size="1" pos="76" show="0" value="0" unmaskedvalue="00"/>
          <field name="info2.generation" showname=".... .0.. = AS_MSG_INFO2_GENERATION: 0" size="1" pos="76" show="0" value="0" unmaskedvalue="00"/>
          <field name="info2.delete" showname=".... ..0. = AS_MSG_INFO2_DELETE: 0" size="1" pos="76" show="0" value="0" unmaskedvalue="00"/>
          <field name="info2.write" showname=".... ...0 = AS_MSG_INFO2_WRITE: 0" size="1" pos="76" show="0" value="0" unmaskedvalue="00"/>
        </proto>
        <proto name="aerospikeinfo3" showname="Info3 : 0" size="1" pos="77">
          <field name="info3.unused1" showname="0... .... = AS_MSG_INFO3_UNUSED2: 0" size="1" pos="77" show="0" value="0" unmaskedvalue="00"/>
          <field name="info3.unused1" showname=".0.. .... = AS_MSG_INFO3_UNUSED1: 0" size="1" pos="77" show="0" value="0" unmaskedvalue="00"/>
          <field name="info3.replace_only" showname="..0. .... = AS_MSG_INFO3_REPLACE_ONLY: 0" size="1" pos="77" show="0" value="0" unmaskedvalue="00"/>
          <field name="info3.create_or_replace" showname="...0 .... = AS_MSG_INFO3_CREATE_OR_REPLACE: 0" size="1" pos="77" show="0" value="0" unmaskedvalue="00"/>
          <field name="info3.update_only" showname=".... 0... = AS_MSG_INFO3_UPDATE_ONLY: 0" size="1" pos="77" show="0" value="0" unmaskedvalue="00"/>
          <field name="info3.level_b1" showname=".... .0.. = AS_MSG_INFO3_COMMIT_LEVEL_B1: 0" size="1" pos="77" show="0" value="0" unmaskedvalue="00"/>
          <field name="info3.level_b0" showname=".... ..0. = AS_MSG_INFO3_COMMIT_LEVEL_B0: 0" size="1" pos="77" show="0" value="0" unmaskedvalue="00"/>
          <field name="info3.last" showname=".... ...0 = AS_MSG_INFO3_LAST: 0" size="1" pos="77" show="0" value="0" unmaskedvalue="00"/>
        </proto>
        <field name="message.unused" showname="Unused: 0" size="1" pos="78" show="0" value="00"/>
        <field name="message.result_code" showname="Result code: 0" size="1" pos="79" show="0" value="00"/>
        <field name="message.generation" showname="Generation: 1" size="4" pos="80" show="1" value="00000001"/>
        <field name="message.record_ttl" showname="Record TTL: 262590816" size="4" pos="84" show="262590816" value="0fa6d160"/>
        <field name="message.transaction_ttl" showname="Transaction TTL: 0" size="4" pos="88" show="0" value="00000000"/>
        <field name="message.n_fields" showname="Number of fields: 1" size="2" pos="92" show="1" value="0001"/>
        <field name="message.n_ops" showname="Number of operations: 2" size="2" pos="94" show="2" value="0002"/>
      </proto>
      <proto name="aerospikefields" showname="Aerospike Fields" size="25" pos="96">
        <field name="message.size" showname="Size: 21" size="4" pos="96" show="21" value="00000015"/>
        <field name="message.type" showname="Field Type: AS_MSG_FIELD_TYPE_DIGEST_RIPE (4)" size="1" pos="100" show="4" value="04"/>
        <field name="message.bytes" showname="Data bytes: bf6c1d13e7cd10c5bd022d27e7df170c0bccd6e1" size="20" pos="101" show="bf:6c:1d:13:e7:cd:10:c5:bd:02:2d:27:e7:df:17:0c:0b:cc:d6:e1" value="bf6c1d13e7cd10c5bd022d27e7df170c0bccd6e1"/>
      </proto>
      <proto name="aerospikeoperations" showname="Aerospike Operations" size="401" pos="121">
        <field name="operations.size" showname="Size: 15" size="4" pos="121" show="15" value="0000000f"/>
        <field name="operations.op" showname="Op: AS_MSG_OP_READ (1)" size="1" pos="125" show="1" value="01"/>
        <field name="operations.bin_data_type" showname="Bin data type: AS_PARTICLE_TYPE_STRING (3)" size="1" pos="126" show="3" value="03"/>
        <field name="operations.bin_version" showname="Bin version: 0" size="1" pos="127" show="0" value="00"/>
        <field name="operations.bin_name_length" showname="Bin name length: 4" size="1" pos="128" show="4" value="04"/>
        <field name="operations.bin_name" showname="Bin name: name" size="4" pos="129" show="name" value="6e616d65"/>
        <field name="operations.data_str" showname="Data string: Shakthi" size="7" pos="133" show="Shakthi" value="5368616b746869"/>
        <field name="operations.size" showname="Size: 15" size="4" pos="140" show="15" value="0000000f"/>
        <field name="operations.op" showname="Op: AS_MSG_OP_READ (1)" size="1" pos="144" show="1" value="01"/>
        <field name="operations.bin_data_type" showname="Bin data type: AS_PARTICLE_TYPE_INTEGER (1)" size="1" pos="145" show="1" value="01"/>
        <field name="operations.bin_version" showname="Bin version: 0" size="1" pos="146" show="0" value="00"/>
        <field name="operations.bin_name_length" showname="Bin name length: 3" size="1" pos="147" show="3" value="03"/>
        <field name="operations.bin_name" showname="Bin name: age" size="3" pos="148" show="age" value="616765"/>
        <field name="operations.data_int" showname="Data integer: 37" size="8" pos="151" show="37" value="0000000000000025"/>
      </proto>
      <proto name="aerospikemessageheader" showname="Aerospike Message Header" size="22" pos="159">
        <field name="message.header_sz" showname="Header Size: 22" size="1" pos="159" show="22" value="16"/>
        <proto name="aerospikeinfo1" showname="Info1 : 0" size="1" pos="160">
          <field name="info1.level_b1" showname="0... .... = AS_MSG_INFO1_CONSISTENCY_LEVEL_B1: 0" size="1" pos="160" show="0" value="0" unmaskedvalue="00"/>
          <field name="info1.level_b0" showname=".0.. .... = AS_MSG_INFO1_CONSISTENCY_LEVEL_B0: 0" size="1" pos="160" show="0" value="0" unmaskedvalue="00"/>
          <field name="info1.get_no_bins" showname="..0. .... = AS_MSG_INFO1_GET_NO_BINS: 0" size="1" pos="160" show="0" value="0" unmaskedvalue="00"/>
          <field name="info1.xdr" showname="...0 .... = AS_MSG_INFO1_XDR: 0" size="1" pos="160" show="0" value="0" unmaskedvalue="00"/>
          <field name="info1.batch" showname=".... 0... = AS_MSG_INFO1_BATCH: 0" size="1" pos="160" show="0" value="0" unmaskedvalue="00"/>
          <field name="info1.unused" showname=".... .0.. = Unused: 0" size="1" pos="160" show="0" value="0" unmaskedvalue="00"/>
          <field name="info1.get_al" showname=".... ..0. = AS_MSG_INFO1_GET_ALL: 0" size="1" pos="160" show="0" value="0" unmaskedvalue="00"/>
          <field name="info1.read" showname=".... ...0 = AS_MSG_INFO1_READ: 0" size="1" pos="160" show="0" value="0" unmaskedvalue="00"/>
        </proto>
        <proto name="aerospikeinfo2" showname="Info2 : 0" size="1" pos="161">
          <field name="info2.respond_all_ops" showname="0... .... = AS_MSG_INFO2_RESPOND_ALL_OPS: 0" size="1" pos="161" show="0" value="0" unmaskedvalue="00"/>
          <field name="info2.unused" showname=".0.. .... = Unused: 0" size="1" pos="161" show="0" value="0" unmaskedvalue="00"/>
          <field name="info2.create_only" showname="..0. .... = AS_MSG_INFO2_CREATE_ONLY: 0" size="1" pos="161" show="0" value="0" unmaskedvalue="00"/>
          <field name="info2.durable_delete" showname="...0 .... = AS_MSG_INFO2_DURABLE_DELETE: 0" size="1" pos="161" show="0" value="0" unmaskedvalue="00"/>
          <field name="info2.generation_dt" showname=".... 0... = AS_MSG_INFO2_GENERATION_GT: 0" size="1" pos="161" show="0" value="0" unmaskedvalue="00"/>
          <field name="info2.generation" showname=".... .0.. = AS_MSG_INFO2_GENERATION: 0" size="1" pos="161" show="0" value="0" unmaskedvalue="00"/>
          <field name="info2.delete" showname=".... ..0. = AS_MSG_INFO2_DELETE: 0" size="1" pos="161" show="0" value="0" unmaskedvalue="00"/>
          <field name="info2.write" showname=".... ...0 = AS_MSG_INFO2_WRITE: 0" size="1" pos="161" show="0" value="0" unmaskedvalue="00"/>
        </proto>
        <proto name="aerospikeinfo3" showname="Info3 : 0" size="1" pos="162">
          <field name="info3.unused1" showname="0... .... = AS_MSG_INFO3_UNUSED2: 0" size="1" pos="162" show="0" value="0" unmaskedvalue="00"/>
          <field name="info3.unused1" showname=".0.. .... = AS_MSG_INFO3_UNUSED1: 0" size="1" pos="162" show="0" value="0" unmaskedvalue="00"/>
          <field name="info3.replace_only" showname="..0. .... = AS_MSG_INFO3_REPLACE_ONLY: 0" size="1" pos="162" show="0" value="0" unmaskedvalue="00"/>
          <field name="info3.create_or_replace" showname="...0 .... = AS_MSG_INFO3_CREATE_OR_REPLACE: 0" size="1" pos="162" show="0" value="0" unmaskedvalue="00"/>
          <field name="info3.update_only" showname=".... 0... = AS_MSG_INFO3_UPDATE_ONLY: 0" size="1" pos="162" show="0" value="0" unmaskedvalue="00"/>
          <field name="info3.level_b1" showname=".... .0.. = AS_MSG_INFO3_COMMIT_LEVEL_B1: 0" size="1" pos="162" show="0" value="0" unmaskedvalue="00"/>
          <field name="info3.level_b0" showname=".... ..0. = AS_MSG_INFO3_COMMIT_LEVEL_B0: 0" size="1" pos="162" show="0" value="0" unmaskedvalue="00"/>
          <field name="info3.last" showname=".... ...0 = AS_MSG_INFO3_LAST: 0" size="1" pos="162" show="0" value="0" unmaskedvalue="00"/>
        </proto>
        <field name="message.unused" showname="Unused: 0" size="1" pos="163" show="0" value="00"/>
        <field name="message.result_code" showname="Result code: 0" size="1" pos="164" show="0" value="00"/>
        <field name="message.generation" showname="Generation: 1" size="4" pos="165" show="1" value="00000001"/>
        <field name="message.record_ttl" showname="Record TTL: 262590823" size="4" pos="169" show="262590823" value="0fa6d167"/>
        <field name="message.transaction_ttl" showname="Transaction TTL: 1" size="4" pos="173" show="1" value="00000001"/>
        <field name="message.n_fields" showname="Number of fields: 1" size="2" pos="177" show="1" value="0001"/>
        <field name="message.n_ops" showname="Number of operations: 2" size="2" pos="179" show="2" value="0002"/>
      </proto>
      <proto name="aerospikefields" showname="Aerospike Fields" size="110" pos="181">
        <field name="message.size" showname="Size: 21" size="4" pos="181" show="21" value="00000015"/>
        <field name="message.type" showname="Field Type: AS_MSG_FIELD_TYPE_DIGEST_RIPE (4)" size="1" pos="185" show="4" value="04"/>
        <field name="message.bytes" showname="Data bytes: c10b2c764e604c439039804ec947fa2b18520d1a" size="20" pos="186" show="c1:0b:2c:76:4e:60:4c:43:90:39:80:4e:c9:47:fa:2b:18:52:0d:1a" value="c10b2c764e604c439039804ec947fa2b18520d1a"/>
      </proto>
      <proto name="aerospikeoperations" showname="Aerospike Operations" size="316" pos="206">
        <field name="operations.size" showname="Size: 13" size="4" pos="206" show="13" value="0000000d"/>
        <field name="operations.op" showname="Op: AS_MSG_OP_READ (1)" size="1" pos="210" show="1" value="01"/>
        <field name="operations.bin_data_type" showname="Bin data type: AS_PARTICLE_TYPE_STRING (3)" size="1" pos="211" show="3" value="03"/>
        <field name="operations.bin_version" showname="Bin version: 0" size="1" pos="212" show="0" value="00"/>
        <field name="operations.bin_name_length" showname="Bin name length: 4" size="1" pos="213" show="4" value="04"/>
        <field name="operations.bin_name" showname="Bin name: name" size="4" pos="214" show="name" value="6e616d65"/>
        <field name="operations.data_str" showname="Data string: Adith" size="5" pos="218" show="Adith" value="4164697468"/>
        <field name="operations.size" showname="Size: 15" size="4" pos="223" show="15" value="0000000f"/>
        <field name="operations.op" showname="Op: AS_MSG_OP_READ (1)" size="1" pos="227" show="1" value="01"/>
        <field name="operations.bin_data_type" showname="Bin data type: AS_PARTICLE_TYPE_INTEGER (1)" size="1" pos="228" show="1" value="01"/>
        <field name="operations.bin_version" showname="Bin version: 0" size="1" pos="229" show="0" value="00"/>
        <field name="operations.bin_name_length" showname="Bin name length: 3" size="1" pos="230" show="3" value="03"/>
        <field name="operations.bin_name" showname="Bin name: age" size="3" pos="231" show="age" value="616765"/>
        <field name="operations.data_int" showname="Data integer: 4" size="8" pos="234" show="4" value="0000000000000004"/>
      </proto>
      <proto name="aerospikemessageheader" showname="Aerospike Message Header" size="22" pos="242">
        <field name="message.header_sz" showname="Header Size: 22" size="1" pos="242" show="22" value="16"/>
        <proto name="aerospikeinfo1" showname="Info1 : 0" size="1" pos="243">
          <field name="info1.level_b1" showname="0... .... = AS_MSG_INFO1_CONSISTENCY_LEVEL_B1: 0" size="1" pos="243" show="0" value="0" unmaskedvalue="00"/>
          <field name="info1.level_b0" showname=".0.. .... = AS_MSG_INFO1_CONSISTENCY_LEVEL_B0: 0" size="1" pos="243" show="0" value="0" unmaskedvalue="00"/>
          <field name="info1.get_no_bins" showname="..0. .... = AS_MSG_INFO1_GET_NO_BINS: 0" size="1" pos="243" show="0" value="0" unmaskedvalue="00"/>
          <field name="info1.xdr" showname="...0 .... = AS_MSG_INFO1_XDR: 0" size="1" pos="243" show="0" value="0" unmaskedvalue="00"/>
          <field name="info1.batch" showname=".... 0... = AS_MSG_INFO1_BATCH: 0" size="1" pos="243" show="0" value="0" unmaskedvalue="00"/>
          <field name="info1.unused" showname=".... .0.. = Unused: 0" size="1" pos="243" show="0" value="0" unmaskedvalue="00"/>
          <field name="info1.get_al" showname=".... ..0. = AS_MSG_INFO1_GET_ALL: 0" size="1" pos="243" show="0" value="0" unmaskedvalue="00"/>
          <field name="info1.read" showname=".... ...0 = AS_MSG_INFO1_READ: 0" size="1" pos="243" show="0" value="0" unmaskedvalue="00"/>
        </proto>
        <proto name="aerospikeinfo2" showname="Info2 : 0" size="1" pos="244">
          <field name="info2.respond_all_ops" showname="0... .... = AS_MSG_INFO2_RESPOND_ALL_OPS: 0" size="1" pos="244" show="0" value="0" unmaskedvalue="00"/>
          <field name="info2.unused" showname=".0.. .... = Unused: 0" size="1" pos="244" show="0" value="0" unmaskedvalue="00"/>
          <field name="info2.create_only" showname="..0. .... = AS_MSG_INFO2_CREATE_ONLY: 0" size="1" pos="244" show="0" value="0" unmaskedvalue="00"/>
          <field name="info2.durable_delete" showname="...0 .... = AS_MSG_INFO2_DURABLE_DELETE: 0" size="1" pos="244" show="0" value="0" unmaskedvalue="00"/>
          <field name="info2.generation_dt" showname=".... 0... = AS_MSG_INFO2_GENERATION_GT: 0" size="1" pos="244" show="0" value="0" unmaskedvalue="00"/>
          <field name="info2.generation" showname=".... .0.. = AS_MSG_INFO2_GENERATION: 0" size="1" pos="244" show="0" value="0" unmaskedvalue="00"/>
          <field name="info2.delete" showname=".... ..0. = AS_MSG_INFO2_DELETE: 0" size="1" pos="244" show="0" value="0" unmaskedvalue="00"/>
          <field name="info2.write" showname=".... ...0 = AS_MSG_INFO2_WRITE: 0" size="1" pos="244" show="0" value="0" unmaskedvalue="00"/>
        </proto>
        <proto name="aerospikeinfo3" showname="Info3 : 0" size="1" pos="245">
          <field name="info3.unused1" showname="0... .... = AS_MSG_INFO3_UNUSED2: 0" size="1" pos="245" show="0" value="0" unmaskedvalue="00"/>
          <field name="info3.unused1" showname=".0.. .... = AS_MSG_INFO3_UNUSED1: 0" size="1" pos="245" show="0" value="0" unmaskedvalue="00"/>
          <field name="info3.replace_only" showname="..0. .... = AS_MSG_INFO3_REPLACE_ONLY: 0" size="1" pos="245" show="0" value="0" unmaskedvalue="00"/>
          <field name="info3.create_or_replace" showname="...0 .... = AS_MSG_INFO3_CREATE_OR_REPLACE: 0" size="1" pos="245" show="0" value="0" unmaskedvalue="00"/>
          <field name="info3.update_only" showname=".... 0... = AS_MSG_INFO3_UPDATE_ONLY: 0" size="1" pos="245" show="0" value="0" unmaskedvalue="00"/>
          <field name="info3.level_b1" showname=".... .0.. = AS_MSG_INFO3_COMMIT_LEVEL_B1: 0" size="1" pos="245" show="0" value="0" unmaskedvalue="00"/>
          <field name="info3.level_b0" showname=".... ..0. = AS_MSG_INFO3_COMMIT_LEVEL_B0: 0" size="1" pos="245" show="0" value="0" unmaskedvalue="00"/>
          <field name="info3.last" showname=".... ...0 = AS_MSG_INFO3_LAST: 0" size="1" pos="245" show="0" value="0" unmaskedvalue="00"/>
        </proto>
        <field name="message.unused" showname="Unused: 0" size="1" pos="246" show="0" value="00"/>
        <field name="message.result_code" showname="Result code: 0" size="1" pos="247" show="0" value="00"/>
        <field name="message.generation" showname="Generation: 1" size="4" pos="248" show="1" value="00000001"/>
        <field name="message.record_ttl" showname="Record TTL: 262590831" size="4" pos="252" show="262590831" value="0fa6d16f"/>
        <field name="message.transaction_ttl" showname="Transaction TTL: 2" size="4" pos="256" show="2" value="00000002"/>
        <field name="message.n_fields" showname="Number of fields: 1" size="2" pos="260" show="1" value="0001"/>
        <field name="message.n_ops" showname="Number of operations: 2" size="2" pos="262" show="2" value="0002"/>
      </proto>
      <proto name="aerospikefields" showname="Aerospike Fields" size="193" pos="264">
        <field name="message.size" showname="Size: 21" size="4" pos="264" show="21" value="00000015"/>
        <field name="message.type" showname="Field Type: AS_MSG_FIELD_TYPE_DIGEST_RIPE (4)" size="1" pos="268" show="4" value="04"/>
        <field name="message.bytes" showname="Data bytes: 10fd8f59adf1833152e439a2e03c19efcb12c145" size="20" pos="269" show="10:fd:8f:59:ad:f1:83:31:52:e4:39:a2:e0:3c:19:ef:cb:12:c1:45" value="10fd8f59adf1833152e439a2e03c19efcb12c145"/>
      </proto>
      <proto name="aerospikeoperations" showname="Aerospike Operations" size="233" pos="289">
        <field name="operations.size" showname="Size: 14" size="4" pos="289" show="14" value="0000000e"/>
        <field name="operations.op" showname="Op: AS_MSG_OP_READ (1)" size="1" pos="293" show="1" value="01"/>
        <field name="operations.bin_data_type" showname="Bin data type: AS_PARTICLE_TYPE_STRING (3)" size="1" pos="294" show="3" value="03"/>
        <field name="operations.bin_version" showname="Bin version: 0" size="1" pos="295" show="0" value="00"/>
        <field name="operations.bin_name_length" showname="Bin name length: 4" size="1" pos="296" show="4" value="04"/>
        <field name="operations.bin_name" showname="Bin name: name" size="4" pos="297" show="name" value="6e616d65"/>
        <field name="operations.data_str" showname="Data string: Vivaan" size="6" pos="301" show="Vivaan" value="56697661616e"/>
        <field name="operations.size" showname="Size: 15" size="4" pos="307" show="15" value="0000000f"/>
        <field name="operations.op" showname="Op: AS_MSG_OP_READ (1)" size="1" pos="311" show="1" value="01"/>
        <field name="operations.bin_data_type" showname="Bin data type: AS_PARTICLE_TYPE_INTEGER (1)" size="1" pos="312" show="1" value="01"/>
        <field name="operations.bin_version" showname="Bin version: 0" size="1" pos="313" show="0" value="00"/>
        <field name="operations.bin_name_length" showname="Bin name length: 3" size="1" pos="314" show="3" value="03"/>
        <field name="operations.bin_name" showname="Bin name: age" size="3" pos="315" show="age" value="616765"/>
        <field name="operations.data_int" showname="Data integer: 1" size="8" pos="318" show="1" value="0000000000000001"/>
      </proto>
      <proto name="aerospikemessageheader" showname="Aerospike Message Header" size="22" pos="326">
        <field name="message.header_sz" showname="Header Size: 22" size="1" pos="326" show="22" value="16"/>
        <proto name="aerospikeinfo1" showname="Info1 : 0" size="1" pos="327">
          <field name="info1.level_b1" showname="0... .... = AS_MSG_INFO1_CONSISTENCY_LEVEL_B1: 0" size="1" pos="327" show="0" value="0" unmaskedvalue="00"/>
          <field name="info1.level_b0" showname=".0.. .... = AS_MSG_INFO1_CONSISTENCY_LEVEL_B0: 0" size="1" pos="327" show="0" value="0" unmaskedvalue="00"/>
          <field name="info1.get_no_bins" showname="..0. .... = AS_MSG_INFO1_GET_NO_BINS: 0" size="1" pos="327" show="0" value="0" unmaskedvalue="00"/>
          <field name="info1.xdr" showname="...0 .... = AS_MSG_INFO1_XDR: 0" size="1" pos="327" show="0" value="0" unmaskedvalue="00"/>
          <field name="info1.batch" showname=".... 0... = AS_MSG_INFO1_BATCH: 0" size="1" pos="327" show="0" value="0" unmaskedvalue="00"/>
          <field name="info1.unused" showname=".... .0.. = Unused: 0" size="1" pos="327" show="0" value="0" unmaskedvalue="00"/>
          <field name="info1.get_al" showname=".... ..0. = AS_MSG_INFO1_GET_ALL: 0" size="1" pos="327" show="0" value="0" unmaskedvalue="00"/>
          <field name="info1.read" showname=".... ...0 = AS_MSG_INFO1_READ: 0" size="1" pos="327" show="0" value="0" unmaskedvalue="00"/>
        </proto>
        <proto name="aerospikeinfo2" showname="Info2 : 0" size="1" pos="328">
          <field name="info2.respond_all_ops" showname="0... .... = AS_MSG_INFO2_RESPOND_ALL_OPS: 0" size="1" pos="328" show="0" value="0" unmaskedvalue="00"/>
          <field name="info2.unused" showname=".0.. .... = Unused: 0" size="1" pos="328" show="0" value="0" unmaskedvalue="00"/>
          <field name="info2.create_only" showname="..0. .... = AS_MSG_INFO2_CREATE_ONLY: 0" size="1" pos="328" show="0" value="0" unmaskedvalue="00"/>
          <field name="info2.durable_delete" showname="...0 .... = AS_MSG_INFO2_DURABLE_DELETE: 0" size="1" pos="328" show="0" value="0" unmaskedvalue="00"/>
          <field name="info2.generation_dt" showname=".... 0... = AS_MSG_INFO2_GENERATION_GT: 0" size="1" pos="328" show="0" value="0" unmaskedvalue="00"/>
          <field name="info2.generation" showname=".... .0.. = AS_MSG_INFO2_GENERATION: 0" size="1" pos="328" show="0" value="0" unmaskedvalue="00"/>
          <field name="info2.delete" showname=".... ..0. = AS_MSG_INFO2_DELETE: 0" size="1" pos="328" show="0" value="0" unmaskedvalue="00"/>
          <field name="info2.write" showname=".... ...0 = AS_MSG_INFO2_WRITE: 0" size="1" pos="328" show="0" value="0" unmaskedvalue="00"/>
        </proto>
        <proto name="aerospikeinfo3" showname="Info3 : 0" size="1" pos="329">
          <field name="info3.unused1" showname="0... .... = AS_MSG_INFO3_UNUSED2: 0" size="1" pos="329" show="0" value="0" unmaskedvalue="00"/>
          <field name="info3.unused1" showname=".0.. .... = AS_MSG_INFO3_UNUSED1: 0" size="1" pos="329" show="0" value="0" unmaskedvalue="00"/>
          <field name="info3.replace_only" showname="..0. .... = AS_MSG_INFO3_REPLACE_ONLY: 0" size="1" pos="329" show="0" value="0" unmaskedvalue="00"/>
          <field name="info3.create_or_replace" showname="...0 .... = AS_MSG_INFO3_CREATE_OR_REPLACE: 0" size="1" pos="329" show="0" value="0" unmaskedvalue="00"/>
          <field name="info3.update_only" showname=".... 0... = AS_MSG_INFO3_UPDATE_ONLY: 0" size="1" pos="329" show="0" value="0" unmaskedvalue="00"/>
          <field name="info3.level_b1" showname=".... .0.. = AS_MSG_INFO3_COMMIT_LEVEL_B1: 0" size="1" pos="329" show="0" value="0" unmaskedvalue="00"/>
          <field name="info3.level_b0" showname=".... ..0. = AS_MSG_INFO3_COMMIT_LEVEL_B0: 0" size="1" pos="329" show="0" value="0" unmaskedvalue="00"/>
          <field name="info3.last" showname=".... ...0 = AS_MSG_INFO3_LAST: 0" size="1" pos="329" show="0" value="0" unmaskedvalue="00"/>
        </proto>
        <field name="message.unused" showname="Unused: 0" size="1" pos="330" show="0" value="00"/>
        <field name="message.result_code" showname="Result code: 0" size="1" pos="331" show="0" value="00"/>
        <field name="message.generation" showname="Generation: 1" size="4" pos="332" show="1" value="00000001"/>
        <field name="message.record_ttl" showname="Record TTL: 262590838" size="4" pos="336" show="262590838" value="0fa6d176"/>
        <field name="message.transaction_ttl" showname="Transaction TTL: 3" size="4" pos="340" show="3" value="00000003"/>
        <field name="message.n_fields" showname="Number of fields: 1" size="2" pos="344" show="1" value="0001"/>
        <field name="message.n_ops" showname="Number of operations: 2" size="2" pos="346" show="2" value="0002"/>
      </proto>
      <proto name="aerospikefields" showname="Aerospike Fields" size="174" pos="348">
        <field name="message.size" showname="Size: 21" size="4" pos="348" show="21" value="00000015"/>
        <field name="message.type" showname="Field Type: AS_MSG_FIELD_TYPE_DIGEST_RIPE (4)" size="1" pos="352" show="4" value="04"/>
        <field name="message.bytes" showname="Data bytes: 703ca4a03068c57171bc4be1f829fcdd604ccdc5" size="20" pos="353" show="70:3c:a4:a0:30:68:c5:71:71:bc:4b:e1:f8:29:fc:dd:60:4c:cd:c5" value="703ca4a03068c57171bc4be1f829fcdd604ccdc5"/>
      </proto>
      <proto name="aerospikeoperations" showname="Aerospike Operations" size="149" pos="373">
        <field name="operations.size" showname="Size: 14" size="4" pos="373" show="14" value="0000000e"/>
        <field name="operations.op" showname="Op: AS_MSG_OP_READ (1)" size="1" pos="377" show="1" value="01"/>
        <field name="operations.bin_data_type" showname="Bin data type: AS_PARTICLE_TYPE_STRING (3)" size="1" pos="378" show="3" value="03"/>
        <field name="operations.bin_version" showname="Bin version: 0" size="1" pos="379" show="0" value="00"/>
        <field name="operations.bin_name_length" showname="Bin name length: 4" size="1" pos="380" show="4" value="04"/>
        <field name="operations.bin_name" showname="Bin name: name" size="4" pos="381" show="name" value="6e616d65"/>
        <field name="operations.data_str" showname="Data string: Shivan" size="6" pos="385" show="Shivan" value="53686976616e"/>
        <field name="operations.size" showname="Size: 15" size="4" pos="391" show="15" value="0000000f"/>
        <field name="operations.op" showname="Op: AS_MSG_OP_READ (1)" size="1" pos="395" show="1" value="01"/>
        <field name="operations.bin_data_type" showname="Bin data type: AS_PARTICLE_TYPE_INTEGER (1)" size="1" pos="396" show="1" value="01"/>
        <field name="operations.bin_version" showname="Bin version: 0" size="1" pos="397" show="0" value="00"/>
        <field name="operations.bin_name_length" showname="Bin name length: 3" size="1" pos="398" show="3" value="03"/>
        <field name="operations.bin_name" showname="Bin name: age" size="3" pos="399" show="age" value="616765"/>
        <field name="operations.data_int" showname="Data integer: 37" size="8" pos="402" show="37" value="0000000000000025"/>
      </proto>
      <proto name="aerospikemessageheader" showname="Aerospike Message Header" size="22" pos="410">
        <field name="message.header_sz" showname="Header Size: 22" size="1" pos="410" show="22" value="16"/>
        <proto name="aerospikeinfo1" showname="Info1 : 0" size="1" pos="411">
          <field name="info1.level_b1" showname="0... .... = AS_MSG_INFO1_CONSISTENCY_LEVEL_B1: 0" size="1" pos="411" show="0" value="0" unmaskedvalue="00"/>
          <field name="info1.level_b0" showname=".0.. .... = AS_MSG_INFO1_CONSISTENCY_LEVEL_B0: 0" size="1" pos="411" show="0" value="0" unmaskedvalue="00"/>
          <field name="info1.get_no_bins" showname="..0. .... = AS_MSG_INFO1_GET_NO_BINS: 0" size="1" pos="411" show="0" value="0" unmaskedvalue="00"/>
          <field name="info1.xdr" showname="...0 .... = AS_MSG_INFO1_XDR: 0" size="1" pos="411" show="0" value="0" unmaskedvalue="00"/>
          <field name="info1.batch" showname=".... 0... = AS_MSG_INFO1_BATCH: 0" size="1" pos="411" show="0" value="0" unmaskedvalue="00"/>
          <field name="info1.unused" showname=".... .0.. = Unused: 0" size="1" pos="411" show="0" value="0" unmaskedvalue="00"/>
          <field name="info1.get_al" showname=".... ..0. = AS_MSG_INFO1_GET_ALL: 0" size="1" pos="411" show="0" value="0" unmaskedvalue="00"/>
          <field name="info1.read" showname=".... ...0 = AS_MSG_INFO1_READ: 0" size="1" pos="411" show="0" value="0" unmaskedvalue="00"/>
        </proto>
        <proto name="aerospikeinfo2" showname="Info2 : 0" size="1" pos="412">
          <field name="info2.respond_all_ops" showname="0... .... = AS_MSG_INFO2_RESPOND_ALL_OPS: 0" size="1" pos="412" show="0" value="0" unmaskedvalue="00"/>
          <field name="info2.unused" showname=".0.. .... = Unused: 0" size="1" pos="412" show="0" value="0" unmaskedvalue="00"/>
          <field name="info2.create_only" showname="..0. .... = AS_MSG_INFO2_CREATE_ONLY: 0" size="1" pos="412" show="0" value="0" unmaskedvalue="00"/>
          <field name="info2.durable_delete" showname="...0 .... = AS_MSG_INFO2_DURABLE_DELETE: 0" size="1" pos="412" show="0" value="0" unmaskedvalue="00"/>
          <field name="info2.generation_dt" showname=".... 0... = AS_MSG_INFO2_GENERATION_GT: 0" size="1" pos="412" show="0" value="0" unmaskedvalue="00"/>
          <field name="info2.generation" showname=".... .0.. = AS_MSG_INFO2_GENERATION: 0" size="1" pos="412" show="0" value="0" unmaskedvalue="00"/>
          <field name="info2.delete" showname=".... ..0. = AS_MSG_INFO2_DELETE: 0" size="1" pos="412" show="0" value="0" unmaskedvalue="00"/>
          <field name="info2.write" showname=".... ...0 = AS_MSG_INFO2_WRITE: 0" size="1" pos="412" show="0" value="0" unmaskedvalue="00"/>
        </proto>
        <proto name="aerospikeinfo3" showname="Info3 : 0" size="1" pos="413">
          <field name="info3.unused1" showname="0... .... = AS_MSG_INFO3_UNUSED2: 0" size="1" pos="413" show="0" value="0" unmaskedvalue="00"/>
          <field name="info3.unused1" showname=".0.. .... = AS_MSG_INFO3_UNUSED1: 0" size="1" pos="413" show="0" value="0" unmaskedvalue="00"/>
          <field name="info3.replace_only" showname="..0. .... = AS_MSG_INFO3_REPLACE_ONLY: 0" size="1" pos="413" show="0" value="0" unmaskedvalue="00"/>
          <field name="info3.create_or_replace" showname="...0 .... = AS_MSG_INFO3_CREATE_OR_REPLACE: 0" size="1" pos="413" show="0" value="0" unmaskedvalue="00"/>
          <field name="info3.update_only" showname=".... 0... = AS_MSG_INFO3_UPDATE_ONLY: 0" size="1" pos="413" show="0" value="0" unmaskedvalue="00"/>
          <field name="info3.level_b1" showname=".... .0.. = AS_MSG_INFO3_COMMIT_LEVEL_B1: 0" size="1" pos="413" show="0" value="0" unmaskedvalue="00"/>
          <field name="info3.level_b0" showname=".... ..0. = AS_MSG_INFO3_COMMIT_LEVEL_B0: 0" size="1" pos="413" show="0" value="0" unmaskedvalue="00"/>
          <field name="info3.last" showname=".... ...0 = AS_MSG_INFO3_LAST: 0" size="1" pos="413" show="0" value="0" unmaskedvalue="00"/>
        </proto>
        <field name="message.unused" showname="Unused: 0" size="1" pos="414" show="0" value="00"/>
        <field name="message.result_code" showname="Result code: 0" size="1" pos="415" show="0" value="00"/>
        <field name="message.generation" showname="Generation: 1" size="4" pos="416" show="1" value="00000001"/>
        <field name="message.record_ttl" showname="Record TTL: 262590867" size="4" pos="420" show="262590867" value="0fa6d193"/>
        <field name="message.transaction_ttl" showname="Transaction TTL: 4" size="4" pos="424" show="4" value="00000004"/>
        <field name="message.n_fields" showname="Number of fields: 1" size="2" pos="428" show="1" value="0001"/>
        <field name="message.n_ops" showname="Number of operations: 2" size="2" pos="430" show="2" value="0002"/>
      </proto>
      <proto name="aerospikefields" showname="Aerospike Fields" size="90" pos="432">
        <field name="message.size" showname="Size: 21" size="4" pos="432" show="21" value="00000015"/>
        <field name="message.type" showname="Field Type: AS_MSG_FIELD_TYPE_DIGEST_RIPE (4)" size="1" pos="436" show="4" value="04"/>
        <field name="message.bytes" showname="Data bytes: 423a4a3228ec080077be88d0a0af164926a2797d" size="20" pos="437" show="42:3a:4a:32:28:ec:08:00:77:be:88:d0:a0:af:16:49:26:a2:79:7d" value="423a4a3228ec080077be88d0a0af164926a2797d"/>
      </proto>
      <proto name="aerospikeoperations" showname="Aerospike Operations" size="65" pos="457">
        <field name="operations.size" showname="Size: 12" size="4" pos="457" show="12" value="0000000c"/>
        <field name="operations.op" showname="Op: AS_MSG_OP_READ (1)" size="1" pos="461" show="1" value="01"/>
        <field name="operations.bin_data_type" showname="Bin data type: AS_PARTICLE_TYPE_STRING (3)" size="1" pos="462" show="3" value="03"/>
        <field name="operations.bin_version" showname="Bin version: 0" size="1" pos="463" show="0" value="00"/>
        <field name="operations.bin_name_length" showname="Bin name length: 4" size="1" pos="464" show="4" value="04"/>
        <field name="operations.bin_name" showname="Bin name: name" size="4" pos="465" show="name" value="6e616d65"/>
        <field name="operations.data_str" showname="Data string: Timo" size="4" pos="469" show="Timo" value="54696d6f"/>
        <field name="operations.size" showname="Size: 15" size="4" pos="473" show="15" value="0000000f"/>
        <field name="operations.op" showname="Op: AS_MSG_OP_READ (1)" size="1" pos="477" show="1" value="01"/>
        <field name="operations.bin_data_type" showname="Bin data type: AS_PARTICLE_TYPE_INTEGER (1)" size="1" pos="478" show="1" value="01"/>
        <field name="operations.bin_version" showname="Bin version: 0" size="1" pos="479" show="0" value="00"/>
        <field name="operations.bin_name_length" showname="Bin name length: 3" size="1" pos="480" show="3" value="03"/>
        <field name="operations.bin_name" showname="Bin name: age" size="3" pos="481" show="age" value="616765"/>
        <field name="operations.data_int" showname="Data integer: 36" size="8" pos="484" show="36" value="0000000000000024"/>
      </proto>
    </proto>
    <proto name="aerospikemessage" showname="Aerospike Message Protocol" size="30" pos="492">
      <field name="message.version" showname="Version: 2" size="1" pos="492" show="2" value="02"/>
      <field name="message.type" showname="Type: Message (3)" size="1" pos="493" show="3" value="03"/>
      <field name="message.size" showname="Size: 22" size="6" pos="494" show="22" value="000000000016"/>
      <proto name="aerospikemessageheader" showname="Aerospike Message Header" size="22" pos="500">
        <field name="message.header_sz" showname="Header Size: 22" size="1" pos="500" show="22" value="16"/>
        <proto name="aerospikeinfo1" showname="Info1 : 0" size="1" pos="501">
          <field name="info1.level_b1" showname="0... .... = AS_MSG_INFO1_CONSISTENCY_LEVEL_B1: 0" size="1" pos="501" show="0" value="0" unmaskedvalue="00"/>
          <field name="info1.level_b0" showname=".0.. .... = AS_MSG_INFO1_CONSISTENCY_LEVEL_B0: 0" size="1" pos="501" show="0" value="0" unmaskedvalue="00"/>
          <field name="info1.get_no_bins" showname="..0. .... = AS_MSG_INFO1_GET_NO_BINS: 0" size="1" pos="501" show="0" value="0" unmaskedvalue="00"/>
          <field name="info1.xdr" showname="...0 .... = AS_MSG_INFO1_XDR: 0" size="1" pos="501" show="0" value="0" unmaskedvalue="00"/>
          <field name="info1.batch" showname=".... 0... = AS_MSG_INFO1_BATCH: 0" size="1" pos="501" show="0" value="0" unmaskedvalue="00"/>
          <field name="info1.unused" showname=".... .0.. = Unused: 0" size="1" pos="501" show="0" value="0" unmaskedvalue="00"/>
          <field name="info1.get_al" showname=".... ..0. = AS_MSG_INFO1_GET_ALL: 0" size="1" pos="501" show="0" value="0" unmaskedvalue="00"/>
          <field name="info1.read" showname=".... ...0 = AS_MSG_INFO1_READ: 0" size="1" pos="501" show="0" value="0" unmaskedvalue="00"/>
        </proto>
        <proto name="aerospikeinfo2" showname="Info2 : 0" size="1" pos="502">
          <field name="info2.respond_all_ops" showname="0... .... = AS_MSG_INFO2_RESPOND_ALL_OPS: 0" size="1" pos="502" show="0" value="0" unmaskedvalue="00"/>
          <field name="info2.unused" showname=".0.. .... = Unused: 0" size="1" pos="502" show="0" value="0" unmaskedvalue="00"/>
          <field name="info2.create_only" showname="..0. .... = AS_MSG_INFO2_CREATE_ONLY: 0" size="1" pos="502" show="0" value="0" unmaskedvalue="00"/>
          <field name="info2.durable_delete" showname="...0 .... = AS_MSG_INFO2_DURABLE_DELETE: 0" size="1" pos="502" show="0" value="0" unmaskedvalue="00"/>
          <field name="info2.generation_dt" showname=".... 0... = AS_MSG_INFO2_GENERATION_GT: 0" size="1" pos="502" show="0" value="0" unmaskedvalue="00"/>
          <field name="info2.generation" showname=".... .0.. = AS_MSG_INFO2_GENERATION: 0" size="1" pos="502" show="0" value="0" unmaskedvalue="00"/>
          <field name="info2.delete" showname=".... ..0. = AS_MSG_INFO2_DELETE: 0" size="1" pos="502" show="0" value="0" unmaskedvalue="00"/>
          <field name="info2.write" showname=".... ...0 = AS_MSG_INFO2_WRITE: 0" size="1" pos="502" show="0" value="0" unmaskedvalue="00"/>
        </proto>
        <proto name="aerospikeinfo3" showname="Info3 : 1" size="1" pos="503">
          <field name="info3.unused1" showname="0... .... = AS_MSG_INFO3_UNUSED2: 0" size="1" pos="503" show="0" value="0" unmaskedvalue="01"/>
          <field name="info3.unused1" showname=".0.. .... = AS_MSG_INFO3_UNUSED1: 0" size="1" pos="503" show="0" value="0" unmaskedvalue="01"/>
          <field name="info3.replace_only" showname="..0. .... = AS_MSG_INFO3_REPLACE_ONLY: 0" size="1" pos="503" show="0" value="0" unmaskedvalue="01"/>
          <field name="info3.create_or_replace" showname="...0 .... = AS_MSG_INFO3_CREATE_OR_REPLACE: 0" size="1" pos="503" show="0" value="0" unmaskedvalue="01"/>
          <field name="info3.update_only" showname=".... 0... = AS_MSG_INFO3_UPDATE_ONLY: 0" size="1" pos="503" show="0" value="0" unmaskedvalue="01"/>
          <field name="info3.level_b1" showname=".... .0.. = AS_MSG_INFO3_COMMIT_LEVEL_B1: 0" size="1" pos="503" show="0" value="0" unmaskedvalue="01"/>
          <field name="info3.level_b0" showname=".... ..0. = AS_MSG_INFO3_COMMIT_LEVEL_B0: 0" size="1" pos="503" show="0" value="0" unmaskedvalue="01"/>
          <field name="info3.last" showname=".... ...1 = AS_MSG_INFO3_LAST: 1" size="1" pos="503" show="1" value="1" unmaskedvalue="01"/>
        </proto>
        <field name="message.unused" showname="Unused: 0" size="1" pos="504" show="0" value="00"/>
        <field name="message.result_code" showname="Result code: 0" size="1" pos="505" show="0" value="00"/>
        <field name="message.generation" showname="Generation: 0" size="4" pos="506" show="0" value="00000000"/>
        <field name="message.record_ttl" showname="Record TTL: 0" size="4" pos="510" show="0" value="00000000"/>
        <field name="message.transaction_ttl" showname="Transaction TTL: 0" size="4" pos="514" show="0" value="00000000"/>
        <field name="message.n_fields" showname="Number of fields: 0" size="2" pos="518" show="0" value="0000"/>
        <field name="message.n_ops" showname="Number of operations: 0" size="2" pos="520" show="0" value="0000"/>
      </proto>
    </proto>
  </packet>
</pdml>
