<?xml version="1.0"?>
<pdml>
  <packet>
    <proto name="geninfo" pos="0" showname="General information" size="194">
      <field name="num" pos="0" show="1" showname="Number" value="1" size="194"/>
      <field name="len" pos="0" show="194" showname="Frame Length" value="c2" size="194"/>
      <field name="caplen" pos="0" show="194" showname="Captured Length" value="c2" size="194"/>
      <field name="timestamp" pos="0" show="Feb  6, 2018 18:21:13.738672000 IST" showname="Captured Time" value="1517921473.738672000" size="194"/>
    </proto>
    <proto name="frame" showname="Frame 1: 194 bytes on wire (1552 bits), 194 bytes captured (1552 bits)" size="194" pos="0">
      <field name="frame.encap_type" showname="Encapsulation type: Ethernet (1)" size="0" pos="0" show="1"/>
      <field name="frame.time" showname="Arrival Time: Feb  6, 2018 18:21:13.738672000 IST" size="0" pos="0" show="Feb  6, 2018 18:21:13.738672000 IST"/>
      <field name="frame.offset_shift" showname="Time shift for this packet: 0.000000000 seconds" size="0" pos="0" show="0.000000000"/>
      <field name="frame.time_epoch" showname="Epoch Time: 1517921473.738672000 seconds" size="0" pos="0" show="1517921473.738672000"/>
      <field name="frame.time_delta" showname="Time delta from previous captured frame: 0.000000000 seconds" size="0" pos="0" show="0.000000000"/>
      <field name="frame.time_delta_displayed" showname="Time delta from previous displayed frame: 0.000000000 seconds" size="0" pos="0" show="0.000000000"/>
      <field name="frame.time_relative" showname="Time since reference or first frame: 0.000000000 seconds" size="0" pos="0" show="0.000000000"/>
      <field name="frame.number" showname="Frame Number: 1" size="0" pos="0" show="1"/>
      <field name="frame.len" showname="Frame Length: 194 bytes (1552 bits)" size="0" pos="0" show="194"/>
      <field name="frame.cap_len" showname="Capture Length: 194 bytes (1552 bits)" size="0" pos="0" show="194"/>
      <field name="frame.marked" showname="Frame is marked: False" size="0" pos="0" show="0"/>
      <field name="frame.ignored" showname="Frame is ignored: False" size="0" pos="0" show="0"/>
      <field name="frame.protocols" showname="Protocols in frame: eth:ethertype:ip:tcp:aerospikeheartbeat" size="0" pos="0" show="eth:ethertype:ip:tcp:aerospikeheartbeat"/>
    </proto>
    <proto name="eth" showname="Ethernet II, Src: PcsCompu_67:2d:2e (08:00:27:67:2d:2e), Dst: PcsCompu_cc:63:89 (08:00:27:cc:63:89)" size="14" pos="0">
      <field name="eth.dst" showname="Destination: PcsCompu_cc:63:89 (08:00:27:cc:63:89)" size="6" pos="0" show="08:00:27:cc:63:89" value="080027cc6389">
        <field name="eth.dst_resolved" showname="Destination (resolved): PcsCompu_cc:63:89" hide="yes" size="6" pos="0" show="PcsCompu_cc:63:89" value="080027cc6389"/>
        <field name="eth.addr" showname="Address: PcsCompu_cc:63:89 (08:00:27:cc:63:89)" size="6" pos="0" show="08:00:27:cc:63:89" value="080027cc6389"/>
        <field name="eth.addr_resolved" showname="Address (resolved): PcsCompu_cc:63:89" hide="yes" size="6" pos="0" show="PcsCompu_cc:63:89" value="080027cc6389"/>
        <field name="eth.lg" showname=".... ..0. .... .... .... .... = LG bit: Globally unique address (factory default)" size="3" pos="0" show="0" value="0" unmaskedvalue="080027"/>
        <field name="eth.ig" showname=".... ...0 .... .... .... .... = IG bit: Individual address (unicast)" size="3" pos="0" show="0" value="0" unmaskedvalue="080027"/>
      </field>
      <field name="eth.src" showname="Source: PcsCompu_67:2d:2e (08:00:27:67:2d:2e)" size="6" pos="6" show="08:00:27:67:2d:2e" value="080027672d2e">
        <field name="eth.src_resolved" showname="Source (resolved): PcsCompu_67:2d:2e" hide="yes" size="6" pos="6" show="PcsCompu_67:2d:2e" value="080027672d2e"/>
        <field name="eth.addr" showname="Address: PcsCompu_67:2d:2e (08:00:27:67:2d:2e)" size="6" pos="6" show="08:00:27:67:2d:2e" value="080027672d2e"/>
        <field name="eth.addr_resolved" showname="Address (resolved): PcsCompu_67:2d:2e" hide="yes" size="6" pos="6" show="PcsCompu_67:2d:2e" value="080027672d2e"/>
        <field name="eth.lg" showname=".... ..0. .... .... .... .... = LG bit: Globally unique address (factory default)" size="3" pos="6" show="0" value="0" unmaskedvalue="080027"/>
        <field name="eth.ig" showname=".... ...0 .... .... .... .... = IG bit: Individual address (unicast)" size="3" pos="6" show="0" value="0" unmaskedvalue="080027"/>
      </field>
      <field name="eth.type" showname="Type: IPv4 (0x0800)" size="2" pos="12" show="0x00000800" value="0800"/>
    </proto>
    <proto name="ip" showname="Internet Protocol Version 4, Src: 10.0.0.11, Dst: 10.0.0.12" size="20" pos="14">
      <field name="ip.version" showname="0100 .... = Version: 4" size="1" pos="14" show="4" value="4" unmaskedvalue="45"/>
      <field name="ip.hdr_len" showname=".... 0101 = Header Length: 20 bytes (5)" size="1" pos="14" show="20" value="45"/>
      <field name="ip.dsfield" showname="Differentiated Services Field: 0x00 (DSCP: CS0, ECN: Not-ECT)" size="1" pos="15" show="0x00000000" value="00">
        <field name="ip.dsfield.dscp" showname="0000 00.. = Differentiated Services Codepoint: Default (0)" size="1" pos="15" show="0" value="0" unmaskedvalue="00"/>
        <field name="ip.dsfield.ecn" showname=".... ..00 = Explicit Congestion Notification: Not ECN-Capable Transport (0)" size="1" pos="15" show="0" value="0" unmaskedvalue="00"/>
      </field>
      <field name="ip.len" showname="Total Length: 180" size="2" pos="16" show="180" value="00b4"/>
      <field name="ip.id" showname="Identification: 0x5a6b (23147)" size="2" pos="18" show="0x00005a6b" value="5a6b"/>
      <field name="ip.flags" showname="Flags: 0x02 (Don't Fragment)" size="1" pos="20" show="0x00000002" value="40">
        <field name="ip.flags.rb" showname="0... .... = Reserved bit: Not set" size="1" pos="20" show="0" value="40"/>
        <field name="ip.flags.df" showname=".1.. .... = Don't fragment: Set" size="1" pos="20" show="1" value="40"/>
        <field name="ip.flags.mf" showname="..0. .... = More fragments: Not set" size="1" pos="20" show="0" value="40"/>
      </field>
      <field name="ip.frag_offset" showname="Fragment offset: 0" size="2" pos="20" show="0" value="4000"/>
      <field name="ip.ttl" showname="Time to live: 64" size="1" pos="22" show="64" value="40"/>
      <field name="ip.proto" showname="Protocol: TCP (6)" size="1" pos="23" show="6" value="06"/>
      <field name="ip.checksum" showname="Header checksum: 0xcbc2 [validation disabled]" size="2" pos="24" show="0x0000cbc2" value="cbc2"/>
      <field name="ip.checksum.status" showname="Header checksum status: Unverified" size="0" pos="24" show="2"/>
      <field name="ip.src" showname="Source: 10.0.0.11" size="4" pos="26" show="10.0.0.11" value="0a00000b"/>
      <field name="ip.addr" showname="Source or Destination Address: 10.0.0.11" hide="yes" size="4" pos="26" show="10.0.0.11" value="0a00000b"/>
      <field name="ip.src_host" showname="Source Host: 10.0.0.11" hide="yes" size="4" pos="26" show="10.0.0.11" value="0a00000b"/>
      <field name="ip.host" showname="Source or Destination Host: 10.0.0.11" hide="yes" size="4" pos="26" show="10.0.0.11" value="0a00000b"/>
      <field name="ip.dst" showname="Destination: 10.0.0.12" size="4" pos="30" show="10.0.0.12" value="0a00000c"/>
      <field name="ip.addr" showname="Source or Destination Address: 10.0.0.12" hide="yes" size="4" pos="30" show="10.0.0.12" value="0a00000c"/>
      <field name="ip.dst_host" showname="Destination Host: 10.0.0.12" hide="yes" size="4" pos="30" show="10.0.0.12" value="0a00000c"/>
      <field name="ip.host" showname="Source or Destination Host: 10.0.0.12" hide="yes" size="4" pos="30" show="10.0.0.12" value="0a00000c"/>
      <field name="" show="Source GeoIP: Unknown" size="4" pos="26" value="0a00000b"/>
      <field name="" show="Destination GeoIP: Unknown" size="4" pos="30" value="0a00000c"/>
    </proto>
    <proto name="tcp" showname="Transmission Control Protocol, Src Port: 3002, Dst Port: 34828, Seq: 1, Ack: 1, Len: 128" size="32" pos="34">
      <field name="tcp.srcport" showname="Source Port: 3002" size="2" pos="34" show="3002" value="0bba"/>
      <field name="tcp.dstport" showname="Destination Port: 34828" size="2" pos="36" show="34828" value="880c"/>
      <field name="tcp.port" showname="Source or Destination Port: 3002" hide="yes" size="2" pos="34" show="3002" value="0bba"/>
      <field name="tcp.port" showname="Source or Destination Port: 34828" hide="yes" size="2" pos="36" show="34828" value="880c"/>
      <field name="tcp.stream" showname="Stream index: 0" size="0" pos="34" show="0"/>
      <field name="tcp.len" showname="TCP Segment Len: 128" size="1" pos="46" show="128" value="80"/>
      <field name="tcp.seq" showname="Sequence number: 1    (relative sequence number)" size="4" pos="38" show="1" value="cc62ae7b"/>
      <field name="tcp.nxtseq" showname="Next sequence number: 129    (relative sequence number)" size="0" pos="34" show="129"/>
      <field name="tcp.ack" showname="Acknowledgment number: 1    (relative ack number)" size="4" pos="42" show="1" value="1bc3cb46"/>
      <field name="tcp.hdr_len" showname="1000 .... = Header Length: 32 bytes (8)" size="1" pos="46" show="32" value="80"/>
      <field name="tcp.flags" showname="Flags: 0x018 (PSH, ACK)" size="2" pos="46" show="0x00000018" value="18" unmaskedvalue="8018">
        <field name="tcp.flags.res" showname="000. .... .... = Reserved: Not set" size="1" pos="46" show="0" value="0" unmaskedvalue="80"/>
        <field name="tcp.flags.ns" showname="...0 .... .... = Nonce: Not set" size="1" pos="46" show="0" value="0" unmaskedvalue="80"/>
        <field name="tcp.flags.cwr" showname=".... 0... .... = Congestion Window Reduced (CWR): Not set" size="1" pos="47" show="0" value="0" unmaskedvalue="18"/>
        <field name="tcp.flags.ecn" showname=".... .0.. .... = ECN-Echo: Not set" size="1" pos="47" show="0" value="0" unmaskedvalue="18"/>
        <field name="tcp.flags.urg" showname=".... ..0. .... = Urgent: Not set" size="1" pos="47" show="0" value="0" unmaskedvalue="18"/>
        <field name="tcp.flags.ack" showname=".... ...1 .... = Acknowledgment: Set" size="1" pos="47" show="1" value="1" unmaskedvalue="18"/>
        <field name="tcp.flags.push" showname=".... .... 1... = Push: Set" size="1" pos="47" show="1" value="1" unmaskedvalue="18"/>
        <field name="tcp.flags.reset" showname=".... .... .0.. = Reset: Not set" size="1" pos="47" show="0" value="0" unmaskedvalue="18"/>
        <field name="tcp.flags.syn" showname=".... .... ..0. = Syn: Not set" size="1" pos="47" show="0" value="0" unmaskedvalue="18"/>
        <field name="tcp.flags.fin" showname=".... .... ...0 = Fin: Not set" size="1" pos="47" show="0" value="0" unmaskedvalue="18"/>
        <field name="tcp.flags.str" showname="TCP Flags: \xc2\xb7\xc2\xb7\xc2\xb7\xc2\xb7\xc2\xb7\xc2\xb7\xc2\xb7AP\xc2\xb7\xc2\xb7\xc2\xb7" size="2" pos="46" show="\xc2\xb7\xc2\xb7\xc2\xb7\xc2\xb7\xc2\xb7\xc2\xb7\xc2\xb7AP\xc2\xb7\xc2\xb7\xc2\xb7" value="8018"/>
      </field>
      <field name="tcp.window_size_value" showname="Window size value: 57" size="2" pos="48" show="57" value="0039"/>
      <field name="tcp.window_size" showname="Calculated window size: 57" size="2" pos="48" show="57" value="0039"/>
      <field name="tcp.window_size_scalefactor" showname="Window size scaling factor: -1 (unknown)" size="2" pos="48" show="-1" value="0039"/>
      <field name="tcp.checksum" showname="Checksum: 0x11fe [unverified]" size="2" pos="50" show="0x000011fe" value="11fe"/>
      <field name="tcp.checksum.status" showname="Checksum Status: Unverified" size="0" pos="50" show="2"/>
      <field name="tcp.urgent_pointer" showname="Urgent pointer: 0" size="2" pos="52" show="0" value="0000"/>
      <field name="tcp.options" showname="Options: (12 bytes), No-Operation (NOP), No-Operation (NOP), Timestamps" size="12" pos="54" show="01:01:08:0a:00:08:f4:90:00:07:c1:44" value="0101080a0008f4900007c144">
        <field name="tcp.options.nop" showname="TCP Option - No-Operation (NOP)" size="1" pos="54" show="01" value="01">
          <field name="tcp.option_kind" showname="Kind: No-Operation (1)" size="1" pos="54" show="1" value="01"/>
        </field>
        <field name="tcp.options.nop" showname="TCP Option - No-Operation (NOP)" size="1" pos="55" show="01" value="01">
          <field name="tcp.option_kind" showname="Kind: No-Operation (1)" size="1" pos="55" show="1" value="01"/>
        </field>
        <field name="tcp.options.timestamp" showname="TCP Option - Timestamps: TSval 586896, TSecr 508228" size="10" pos="56" show="08:0a:00:08:f4:90:00:07:c1:44" value="080a0008f4900007c144">
          <field name="tcp.option_kind" showname="Kind: Time Stamp Option (8)" size="1" pos="56" show="8" value="08"/>
          <field name="tcp.option_len" showname="Length: 10" size="1" pos="57" show="10" value="0a"/>
          <field name="tcp.options.timestamp.tsval" showname="Timestamp value: 586896" size="4" pos="58" show="586896" value="0008f490"/>
          <field name="tcp.options.timestamp.tsecr" showname="Timestamp echo reply: 508228" size="4" pos="62" show="508228" value="0007c144"/>
        </field>
      </field>
      <field name="tcp.analysis" showname="SEQ/ACK analysis" size="0" pos="34" show="" value="">
        <field name="tcp.analysis.bytes_in_flight" showname="Bytes in flight: 128" size="0" pos="34" show="128"/>
        <field name="tcp.analysis.push_bytes_sent" showname="Bytes sent since last PSH flag: 128" size="0" pos="34" show="128"/>
      </field>
      <field name="tcp.payload" showname="TCP payload (128 bytes)" size="128" pos="66" show="00:00:00:7a:00:05:00:00:01:00:00:68:64:00:01:01:00:00:00:00:00:02:03:0b:b9:2e:2d:67:27:00:08:00:04:03:01:61:6b:2b:94:ca:00:00:00:05:06:00:00:00:09:01:00:01:ba:0b:0a:00:00:0b:00:09:06:00:00:00:09:01:00:01:b9:0b:0a:00:00:0b:00:0a:06:00:00:00:00:00:0b:06:00:00:00:28:7c:70:00:00:f2:e8:47:81:ac:c3:00:00:00:00:62:4b:2b:6b:61:01:00:00:00:00:00:00:00:00:01:00:00:00:08:00:27:67:2d:2e:b9:0b" value="0000007a000500000100006864000101000000000002030bb92e2d6727000800040301616b2b94ca000000050600000009010001ba0b0a00000b00090600000009010001b90b0a00000b000a0600000000000b06000000287c700000f2e84781acc300000000624b2b6b6101000000000000000001000000080027672d2eb90b"/>
    </proto>
    <proto name="fake-field-wrapper">
      <field name="_ws.lua.fake" showname="Wireshark Lua fake item" hide="yes" size="0" pos="66" show="" value=""/>
    </proto>
    <proto name="aerospikeheartbeat" showname="Aerospike Heartbeat" size="128" pos="66">
      <field name="heartbeat.size" showname="Size: 122" size="4" pos="66" show="122" value="0000007a"/>
      <field name="heartbeat.type" showname="Field Type: M_TYPE_HEARTBEAT (5)" size="2" pos="70" show="5" value="0005"/>
      <field name="heartbeat_message.id" showname="ID: AS_HB_MSG_ID (0)" size="2" pos="72" show="0" value="0000"/>
      <field name="heartbeat_message.type" showname="Message Type: 1" size="1" pos="74" show="1" value="01"/>
      <field name="heartbeat_message.bytes" showname="Data bytes: 00006864" size="4" pos="75" show="00:00:68:64" value="00006864"/>
      <field name="heartbeat_message.id" showname="ID: AS_HB_MSG_TYPE (1)" size="2" pos="79" show="1" value="0001"/>
      <field name="heartbeat_message.type" showname="Message Type: 1" size="1" pos="81" show="1" value="01"/>
      <field name="heartbeat_message.bytes" showname="Data bytes: 00000000" size="4" pos="82" show="00:00:00:00" value="00000000"/>
      <field name="heartbeat_message.id" showname="ID: AS_HB_MSG_NODE (2)" size="2" pos="86" show="2" value="0002"/>
      <field name="heartbeat_message.type" showname="Message Type: 3" size="1" pos="88" show="3" value="03"/>
      <field name="heartbeat_message.bytes" showname="Data bytes: 0bb92e2d67270008" size="8" pos="89" show="0b:b9:2e:2d:67:27:00:08" value="0bb92e2d67270008"/>
      <field name="heartbeat_message.id" showname="ID: AS_HB_MSG_HLC_TIMESTAMP (4)" size="2" pos="97" show="4" value="0004"/>
      <field name="heartbeat_message.type" showname="Message Type: 3" size="1" pos="99" show="3" value="03"/>
      <field name="heartbeat_message.bytes" showname="Data bytes: 01616b2b94ca0000" size="8" pos="100" show="01:61:6b:2b:94:ca:00:00" value="01616b2b94ca0000"/>
      <field name="heartbeat_message.id" showname="ID: AS_HB_MSG_ENDPOINTS (5)" size="2" pos="108" show="5" value="0005"/>
      <field name="heartbeat_message.type" showname="Message Type: 6" size="1" pos="110" show="6" value="06"/>
      <field name="heartbeat_message.size" showname="Size: 9" size="4" pos="111" show="9" value="00000009"/>
      <field name="heartbeat_message.bytes" showname="Data bytes: 010001ba0b0a00000b" size="9" pos="115" show="01:00:01:ba:0b:0a:00:00:0b" value="010001ba0b0a00000b"/>
      <field name="heartbeat_message.id" showname="ID: AS_HB_MSG_FABRIC_DATA (9)" size="2" pos="124" show="9" value="0009"/>
      <field name="heartbeat_message.type" showname="Message Type: 6" size="1" pos="126" show="6" value="06"/>
      <field name="heartbeat_message.size" showname="Size: 9" size="4" pos="127" show="9" value="00000009"/>
      <field name="heartbeat_message.bytes" showname="Data bytes: 010001b90b0a00000b" size="9" pos="131" show="01:00:01:b9:0b:0a:00:00:0b" value="010001b90b0a00000b"/>
      <field name="heartbeat_message.id" showname="ID: AS_HB_MSG_HB_DATA (10)" size="2" pos="140" show="10" value="000a"/>
      <field name="heartbeat_message.type" showname="Message Type: 6" size="1" pos="142" show="6" value="06"/>
      <field name="heartbeat_message.size" showname="Size: 0" size="4" pos="143" show="0" value="00000000"/>
      <field name="heartbeat_message.id" showname="ID: AS_HB_MSG_PAXOS_DATA (11)" size="2" pos="147" show="11" value="000b"/>
      <field name="heartbeat_message.type" showname="Message Type: 6" size="1" pos="149" show="6" value="06"/>
      <field name="heartbeat_message.size" showname="Size: 40" size="4" pos="150" show="40" value="00000028"/>
      <field name="heartbeat_message.bytes" showname="Data bytes: 7c700000f2e84781acc300000000624b2b6b610100000000..." size="40" pos="154" show="7c:70:00:00:f2:e8:47:81:ac:c3:00:00:00:00:62:4b:2b:6b:61:01:00:00:00:00:00:00:00:00:01:00:00:00:08:00:27:67:2d:2e:b9:0b" value="7c700000f2e84781acc300000000624b2b6b6101000000000000000001000000080027672d2eb90b"/>
    </proto>
  </packet>
</pdml>
