<?xml version="1.0"?>
<pdml>
  <packet>
    <proto name="geninfo" pos="0" showname="General information" size="139">
      <field name="num" pos="0" show="1" showname="Number" value="1" size="139"/>
      <field name="len" pos="0" show="139" showname="Frame Length" value="8b" size="139"/>
      <field name="caplen" pos="0" show="139" showname="Captured Length" value="8b" size="139"/>
      <field name="timestamp" pos="0" show="Nov 30, 2017 15:40:39.853816460 IST" showname="Captured Time" value="1512036639.853816460" size="139"/>
    </proto>
    <proto name="frame" showname="Frame 1: 139 bytes on wire (1112 bits), 139 bytes captured (1112 bits) on interface 0" size="139" pos="0">
      <field name="frame.interface_id" showname="Interface id: 0 (any)" size="0" pos="0" show="0">
        <field name="frame.interface_name" showname="Interface name: any" size="0" pos="0" show="any"/>
      </field>
      <field name="frame.encap_type" showname="Encapsulation type: Linux cooked-mode capture (25)" size="0" pos="0" show="25"/>
      <field name="frame.time" showname="Arrival Time: Nov 30, 2017 15:40:39.853816460 IST" size="0" pos="0" show="Nov 30, 2017 15:40:39.853816460 IST"/>
      <field name="frame.offset_shift" showname="Time shift for this packet: 0.000000000 seconds" size="0" pos="0" show="0.000000000"/>
      <field name="frame.time_epoch" showname="Epoch Time: 1512036639.853816460 seconds" size="0" pos="0" show="1512036639.853816460"/>
      <field name="frame.time_delta" showname="Time delta from previous captured frame: 0.000000000 seconds" size="0" pos="0" show="0.000000000"/>
      <field name="frame.time_delta_displayed" showname="Time delta from previous displayed frame: 0.000000000 seconds" size="0" pos="0" show="0.000000000"/>
      <field name="frame.time_relative" showname="Time since reference or first frame: 0.000000000 seconds" size="0" pos="0" show="0.000000000"/>
      <field name="frame.number" showname="Frame Number: 1" size="0" pos="0" show="1"/>
      <field name="frame.len" showname="Frame Length: 139 bytes (1112 bits)" size="0" pos="0" show="139"/>
      <field name="frame.cap_len" showname="Capture Length: 139 bytes (1112 bits)" size="0" pos="0" show="139"/>
      <field name="frame.marked" showname="Frame is marked: False" size="0" pos="0" show="0"/>
      <field name="frame.ignored" showname="Frame is ignored: False" size="0" pos="0" show="0"/>
      <field name="frame.protocols" showname="Protocols in frame: sll:ethertype:ip:tcp:aerospikeprotocol" size="0" pos="0" show="sll:ethertype:ip:tcp:aerospikeprotocol"/>
    </proto>
    <proto name="sll" showname="Linux cooked capture" size="16" pos="0">
      <field name="sll.pkttype" showname="Packet type: Unicast to us (0)" size="2" pos="0" show="0" value="0000"/>
      <field name="sll.hatype" showname="Link-layer address type: 772" size="2" pos="2" show="772" value="0304"/>
      <field name="sll.halen" showname="Link-layer address length: 6" size="2" pos="4" show="6" value="0006"/>
      <field name="sll.src.eth" showname="Source: 00:00:00_00:00:00 (00:00:00:00:00:00)" size="6" pos="6" show="00:00:00:00:00:00" value="000000000000"/>
      <field name="sll.unused" showname="Unused: 0000" size="2" pos="12" show="00:00" value="0000"/>
      <field name="sll.etype" showname="Protocol: IPv4 (0x0800)" size="2" pos="14" show="0x00000800" value="0800"/>
    </proto>
    <proto name="ip" showname="Internet Protocol Version 4, Src: 127.0.0.1, Dst: 127.0.0.1" size="20" pos="16">
      <field name="ip.version" showname="0100 .... = Version: 4" size="1" pos="16" show="4" value="4" unmaskedvalue="45"/>
      <field name="ip.hdr_len" showname=".... 0101 = Header Length: 20 bytes (5)" size="1" pos="16" show="20" value="45"/>
      <field name="ip.dsfield" showname="Differentiated Services Field: 0x00 (DSCP: CS0, ECN: Not-ECT)" size="1" pos="17" show="0x00000000" value="00">
        <field name="ip.dsfield.dscp" showname="0000 00.. = Differentiated Services Codepoint: Default (0)" size="1" pos="17" show="0" value="0" unmaskedvalue="00"/>
        <field name="ip.dsfield.ecn" showname=".... ..00 = Explicit Congestion Notification: Not ECN-Capable Transport (0)" size="1" pos="17" show="0" value="0" unmaskedvalue="00"/>
      </field>
      <field name="ip.len" showname="Total Length: 123" size="2" pos="18" show="123" value="007b"/>
      <field name="ip.id" showname="Identification: 0xc40b (50187)" size="2" pos="20" show="0x0000c40b" value="c40b"/>
      <field name="ip.flags" showname="Flags: 0x02 (Don't Fragment)" size="1" pos="22" show="0x00000002" value="40">
        <field name="ip.flags.rb" showname="0... .... = Reserved bit: Not set" size="1" pos="22" show="0" value="40"/>
        <field name="ip.flags.df" showname=".1.. .... = Don't fragment: Set" size="1" pos="22" show="1" value="40"/>
        <field name="ip.flags.mf" showname="..0. .... = More fragments: Not set" size="1" pos="22" show="0" value="40"/>
      </field>
      <field name="ip.frag_offset" showname="Fragment offset: 0" size="2" pos="22" show="0" value="4000"/>
      <field name="ip.ttl" showname="Time to live: 64" size="1" pos="24" show="64" value="40"/>
      <field name="ip.proto" showname="Protocol: TCP (6)" size="1" pos="25" show="6" value="06"/>
      <field name="ip.checksum" showname="Header checksum: 0x786f [validation disabled]" size="2" pos="26" show="0x0000786f" value="786f"/>
      <field name="ip.checksum.status" showname="Header checksum status: Unverified" size="0" pos="26" show="2"/>
      <field name="ip.src" showname="Source: 127.0.0.1" size="4" pos="28" show="127.0.0.1" value="7f000001"/>
      <field name="ip.addr" showname="Source or Destination Address: 127.0.0.1" hide="yes" size="4" pos="28" show="127.0.0.1" value="7f000001"/>
      <field name="ip.src_host" showname="Source Host: 127.0.0.1" hide="yes" size="4" pos="28" show="127.0.0.1" value="7f000001"/>
      <field name="ip.host" showname="Source or Destination Host: 127.0.0.1" hide="yes" size="4" pos="28" show="127.0.0.1" value="7f000001"/>
      <field name="ip.dst" showname="Destination: 127.0.0.1" size="4" pos="32" show="127.0.0.1" value="7f000001"/>
      <field name="ip.addr" showname="Source or Destination Address: 127.0.0.1" hide="yes" size="4" pos="32" show="127.0.0.1" value="7f000001"/>
      <field name="ip.dst_host" showname="Destination Host: 127.0.0.1" hide="yes" size="4" pos="32" show="127.0.0.1" value="7f000001"/>
      <field name="ip.host" showname="Source or Destination Host: 127.0.0.1" hide="yes" size="4" pos="32" show="127.0.0.1" value="7f000001"/>
      <field name="" show="Source GeoIP: Unknown" size="4" pos="28" value="7f000001"/>
      <field name="" show="Destination GeoIP: Unknown" size="4" pos="32" value="7f000001"/>
    </proto>
    <proto name="tcp" showname="Transmission Control Protocol, Src Port: 3000, Dst Port: 51846, Seq: 1, Ack: 1, Len: 71" size="32" pos="36">
      <field name="tcp.srcport" showname="Source Port: 3000" size="2" pos="36" show="3000" value="0bb8"/>
      <field name="tcp.dstport" showname="Destination Port: 51846" size="2" pos="38" show="51846" value="ca86"/>
      <field name="tcp.port" showname="Source or Destination Port: 3000" hide="yes" size="2" pos="36" show="3000" value="0bb8"/>
      <field name="tcp.port" showname="Source or Destination Port: 51846" hide="yes" size="2" pos="38" show="51846" value="ca86"/>
      <field name="tcp.stream" showname="Stream index: 0" size="0" pos="36" show="0"/>
      <field name="tcp.len" showname="TCP Segment Len: 71" size="1" pos="48" show="71" value="80"/>
      <field name="tcp.seq" showname="Sequence number: 1    (relative sequence number)" size="4" pos="40" show="1" value="7fc1707f"/>
      <field name="tcp.nxtseq" showname="Next sequence number: 72    (relative sequence number)" size="0" pos="36" show="72"/>
      <field name="tcp.ack" showname="Acknowledgment number: 1    (relative ack number)" size="4" pos="44" show="1" value="8dba71ee"/>
      <field name="tcp.hdr_len" showname="1000 .... = Header Length: 32 bytes (8)" size="1" pos="48" show="32" value="80"/>
      <field name="tcp.flags" showname="Flags: 0x018 (PSH, ACK)" size="2" pos="48" show="0x00000018" value="18" unmaskedvalue="8018">
        <field name="tcp.flags.res" showname="000. .... .... = Reserved: Not set" size="1" pos="48" show="0" value="0" unmaskedvalue="80"/>
        <field name="tcp.flags.ns" showname="...0 .... .... = Nonce: Not set" size="1" pos="48" show="0" value="0" unmaskedvalue="80"/>
        <field name="tcp.flags.cwr" showname=".... 0... .... = Congestion Window Reduced (CWR): Not set" size="1" pos="49" show="0" value="0" unmaskedvalue="18"/>
        <field name="tcp.flags.ecn" showname=".... .0.. .... = ECN-Echo: Not set" size="1" pos="49" show="0" value="0" unmaskedvalue="18"/>
        <field name="tcp.flags.urg" showname=".... ..0. .... = Urgent: Not set" size="1" pos="49" show="0" value="0" unmaskedvalue="18"/>
        <field name="tcp.flags.ack" showname=".... ...1 .... = Acknowledgment: Set" size="1" pos="49" show="1" value="1" unmaskedvalue="18"/>
        <field name="tcp.flags.push" showname=".... .... 1... = Push: Set" size="1" pos="49" show="1" value="1" unmaskedvalue="18"/>
        <field name="tcp.flags.reset" showname=".... .... .0.. = Reset: Not set" size="1" pos="49" show="0" value="0" unmaskedvalue="18"/>
        <field name="tcp.flags.syn" showname=".... .... ..0. = Syn: Not set" size="1" pos="49" show="0" value="0" unmaskedvalue="18"/>
        <field name="tcp.flags.fin" showname=".... .... ...0 = Fin: Not set" size="1" pos="49" show="0" value="0" unmaskedvalue="18"/>
        <field name="tcp.flags.str" showname="TCP Flags: \xc2\xb7\xc2\xb7\xc2\xb7\xc2\xb7\xc2\xb7\xc2\xb7\xc2\xb7AP\xc2\xb7\xc2\xb7\xc2\xb7" size="2" pos="48" show="\xc2\xb7\xc2\xb7\xc2\xb7\xc2\xb7\xc2\xb7\xc2\xb7\xc2\xb7AP\xc2\xb7\xc2\xb7\xc2\xb7" value="8018"/>
      </field>
      <field name="tcp.window_size_value" showname="Window size value: 171" size="2" pos="50" show="171" value="00ab"/>
      <field name="tcp.window_size" showname="Calculated window size: 171" size="2" pos="50" show="171" value="00ab"/>
      <field name="tcp.window_size_scalefactor" showname="Window size scaling factor: -1 (unknown)" size="2" pos="50" show="-1" value="00ab"/>
      <field name="tcp.checksum" showname="Checksum: 0xfe6f [unverified]" size="2" pos="52" show="0x0000fe6f" value="fe6f"/>
      <field name="tcp.checksum.status" showname="Checksum Status: Unverified" size="0" pos="52" show="2"/>
      <field name="tcp.urgent_pointer" showname="Urgent pointer: 0" size="2" pos="54" show="0" value="0000"/>
      <field name="tcp.options" showname="Options: (12 bytes), No-Operation (NOP), No-Operation (NOP), Timestamps" size="12" pos="56" show="01:01:08:0a:00:3b:ab:16:00:3b:ab:16" value="0101080a003bab16003bab16">
        <field name="tcp.options.nop" showname="TCP Option - No-Operation (NOP)" size="1" pos="56" show="01" value="01">
          <field name="tcp.option_kind" showname="Kind: No-Operation (1)" size="1" pos="56" show="1" value="01"/>
        </field>
        <field name="tcp.options.nop" showname="TCP Option - No-Operation (NOP)" size="1" pos="57" show="01" value="01">
          <field name="tcp.option_kind" showname="Kind: No-Operation (1)" size="1" pos="57" show="1" value="01"/>
        </field>
        <field name="tcp.options.timestamp" showname="TCP Option - Timestamps: TSval 3910422, TSecr 3910422" size="10" pos="58" show="08:0a:00:3b:ab:16:00:3b:ab:16" value="080a003bab16003bab16">
          <field name="tcp.option_kind" showname="Kind: Time Stamp Option (8)" size="1" pos="58" show="8" value="08"/>
          <field name="tcp.option_len" showname="Length: 10" size="1" pos="59" show="10" value="0a"/>
          <field name="tcp.options.timestamp.tsval" showname="Timestamp value: 3910422" size="4" pos="60" show="3910422" value="003bab16"/>
          <field name="tcp.options.timestamp.tsecr" showname="Timestamp echo reply: 3910422" size="4" pos="64" show="3910422" value="003bab16"/>
        </field>
      </field>
      <field name="tcp.analysis" showname="SEQ/ACK analysis" size="0" pos="36" show="" value="">
        <field name="tcp.analysis.bytes_in_flight" showname="Bytes in flight: 71" size="0" pos="36" show="71"/>
        <field name="tcp.analysis.push_bytes_sent" showname="Bytes sent since last PSH flag: 71" size="0" pos="36" show="71"/>
      </field>
      <field name="tcp.payload" showname="TCP payload (71 bytes)" size="71" pos="68" show="02:01:00:00:00:00:00:3f:6e:6f:64:65:09:42:42:39:42:31:31:33:30:30:30:30:30:30:30:30:0a:70:65:65:72:73:2d:67:65:6e:65:72:61:74:69:6f:6e:09:31:0a:70:61:72:74:69:74:69:6f:6e:2d:67:65:6e:65:72:61:74:69:6f:6e:09:30:0a" value="020100000000003f6e6f6465094242394231313330303030303030300a70656572732d67656e65726174696f6e09310a706172746974696f6e2d67656e65726174696f6e09300a"/>
      <field name="tcp.pdu.size" showname="PDU Size: 71" size="71" pos="68" show="71" value="020100000000003f6e6f6465094242394231313330303030303030300a70656572732d67656e65726174696f6e09310a706172746974696f6e2d67656e65726174696f6e09300a"/>
    </proto>
    <proto name="fake-field-wrapper">
      <field name="_ws.lua.fake" showname="Wireshark Lua fake item" hide="yes" size="0" pos="68" show="" value=""/>
    </proto>
    <proto name="aerospike" showname="Aerospike Info Protocol" size="71" pos="68">
      <field name="header_attribute_values.attribute" showname="Attribute : node" size="4" pos="76" show="node" value="6e6f6465"/>
      <field name="header_attribute_values.value" showname="Value: BB9B11300000000" size="15" pos="81" show="BB9B11300000000" value="424239423131333030303030303030"/>
      <field name="header_attribute_values.attribute" showname="Attribute : peers-generation" size="16" pos="97" show="peers-generation" value="70656572732d67656e65726174696f6e"/>
      <field name="header_attribute_values.value" showname="Value: 1" size="1" pos="114" show="1" value="31"/>
      <field name="header_attribute_values.attribute" showname="Attribute : partition-generation" size="20" pos="116" show="partition-generation" value="706172746974696f6e2d67656e65726174696f6e"/>
      <field name="header_attribute_values.value" showname="Value: 0" size="1" pos="137" show="0" value="30"/>
    </proto>
  </packet>
</pdml>
